
output.o:     file format elf64-littleriscv


Disassembly of section .text:

0000000000000000 <evm_entry>:
       0:	fc010113          	addi	sp,sp,-64
       4:	02113c23          	sd	ra,56(sp)
       8:	02813823          	sd	s0,48(sp)
       c:	02913423          	sd	s1,40(sp)
      10:	03213023          	sd	s2,32(sp)
      14:	01313c23          	sd	s3,24(sp)
      18:	01413823          	sd	s4,16(sp)
      1c:	01513423          	sd	s5,8(sp)
      20:	01613023          	sd	s6,0(sp)
      24:	10000437          	lui	s0,0x10000
      28:	000184b7          	lui	s1,0x18
      2c:	6a04849b          	addiw	s1,s1,1696 # 186a0 <jumpdest_57+0x115b4>
      30:	00000917          	auipc	s2,0x0
      34:	00090913          	mv	s2,s2
      38:	00000993          	li	s3,0
      3c:	00600513          	li	a0,6
      40:	fc1ff0ef          	jal	0 <evm_entry>
      44:	00600513          	li	a0,6
      48:	fb9ff0ef          	jal	0 <evm_entry>
      4c:	00599313          	slli	t1,s3,0x5
      50:	00690333          	add	t1,s2,t1
      54:	08000293          	li	t0,128
      58:	00533023          	sd	t0,0(t1)
      5c:	00000293          	li	t0,0
      60:	00533423          	sd	t0,8(t1)
      64:	00000293          	li	t0,0
      68:	00533823          	sd	t0,16(t1)
      6c:	00000293          	li	t0,0
      70:	00533c23          	sd	t0,24(t1)
      74:	00198993          	addi	s3,s3,1
      78:	00600513          	li	a0,6
      7c:	f85ff0ef          	jal	0 <evm_entry>
      80:	00600513          	li	a0,6
      84:	f7dff0ef          	jal	0 <evm_entry>
      88:	00599313          	slli	t1,s3,0x5
      8c:	00690333          	add	t1,s2,t1
      90:	04000293          	li	t0,64
      94:	00533023          	sd	t0,0(t1)
      98:	00000293          	li	t0,0
      9c:	00533423          	sd	t0,8(t1)
      a0:	00000293          	li	t0,0
      a4:	00533823          	sd	t0,16(t1)
      a8:	00000293          	li	t0,0
      ac:	00533c23          	sd	t0,24(t1)
      b0:	00198993          	addi	s3,s3,1
      b4:	00300513          	li	a0,3
      b8:	f49ff0ef          	jal	0 <evm_entry>
      bc:	ffe98993          	addi	s3,s3,-2
      c0:	00599293          	slli	t0,s3,0x5
      c4:	005902b3          	add	t0,s2,t0
      c8:	0002b303          	ld	t1,0(t0)
      cc:	0082b383          	ld	t2,8(t0)
      d0:	0102be03          	ld	t3,16(t0)
      d4:	0182be83          	ld	t4,24(t0)
      d8:	0202bf03          	ld	t5,32(t0)
      dc:	00830333          	add	t1,t1,s0
      e0:	00733023          	sd	t2,0(t1)
      e4:	01c33423          	sd	t3,8(t1)
      e8:	01d33823          	sd	t4,16(t1)
      ec:	01e33c23          	sd	t5,24(t1)
      f0:	00600513          	li	a0,6
      f4:	f0dff0ef          	jal	0 <evm_entry>
      f8:	00600513          	li	a0,6
      fc:	f05ff0ef          	jal	0 <evm_entry>
     100:	00599313          	slli	t1,s3,0x5
     104:	00690333          	add	t1,s2,t1
     108:	00a00293          	li	t0,10
     10c:	00533023          	sd	t0,0(t1)
     110:	00000293          	li	t0,0
     114:	00533423          	sd	t0,8(t1)
     118:	00000293          	li	t0,0
     11c:	00533823          	sd	t0,16(t1)
     120:	00000293          	li	t0,0
     124:	00533c23          	sd	t0,24(t1)
     128:	00198993          	addi	s3,s3,1
     12c:	00300513          	li	a0,3
     130:	ed1ff0ef          	jal	0 <evm_entry>
     134:	00600513          	li	a0,6
     138:	ec9ff0ef          	jal	0 <evm_entry>
     13c:	00599313          	slli	t1,s3,0x5
     140:	00690333          	add	t1,s2,t1
     144:	00000293          	li	t0,0
     148:	00533023          	sd	t0,0(t1)
     14c:	00000293          	li	t0,0
     150:	00533423          	sd	t0,8(t1)
     154:	00000293          	li	t0,0
     158:	00533823          	sd	t0,16(t1)
     15c:	00000293          	li	t0,0
     160:	00533c23          	sd	t0,24(t1)
     164:	00198993          	addi	s3,s3,1
     168:	00300513          	li	a0,3
     16c:	e95ff0ef          	jal	0 <evm_entry>
     170:	ffe98993          	addi	s3,s3,-2
     174:	00300513          	li	a0,3
     178:	e89ff0ef          	jal	0 <evm_entry>
     17c:	00300513          	li	a0,3
     180:	e81ff0ef          	jal	0 <evm_entry>
     184:	e7dff0ef          	jal	0 <evm_entry>
     188:	00599313          	slli	t1,s3,0x5
     18c:	00690333          	add	t1,s2,t1
     190:	00a33023          	sd	a0,0(t1)
     194:	00033423          	sd	zero,8(t1)
     198:	00033823          	sd	zero,16(t1)
     19c:	00033c23          	sd	zero,24(t1)
     1a0:	00198993          	addi	s3,s3,1
     1a4:	00400513          	li	a0,4
     1a8:	e59ff0ef          	jal	0 <evm_entry>
     1ac:	fff98293          	addi	t0,s3,-1
     1b0:	00529293          	slli	t0,t0,0x5
     1b4:	005902b3          	add	t0,s2,t0
     1b8:	00599313          	slli	t1,s3,0x5
     1bc:	00690333          	add	t1,s2,t1
     1c0:	0002b383          	ld	t2,0(t0)
     1c4:	0082be03          	ld	t3,8(t0)
     1c8:	0102be83          	ld	t4,16(t0)
     1cc:	0182bf03          	ld	t5,24(t0)
     1d0:	00733023          	sd	t2,0(t1)
     1d4:	01c33423          	sd	t3,8(t1)
     1d8:	01d33823          	sd	t4,16(t1)
     1dc:	01e33c23          	sd	t5,24(t1)
     1e0:	00198993          	addi	s3,s3,1
     1e4:	00300513          	li	a0,3
     1e8:	e19ff0ef          	jal	0 <evm_entry>
     1ec:	fff98993          	addi	s3,s3,-1
     1f0:	00599293          	slli	t0,s3,0x5
     1f4:	005902b3          	add	t0,s2,t0
     1f8:	0002b303          	ld	t1,0(t0)
     1fc:	0082b383          	ld	t2,8(t0)
     200:	0102be03          	ld	t3,16(t0)
     204:	0182be83          	ld	t4,24(t0)
     208:	00736433          	or	s0,t1,t2
     20c:	01c46433          	or	s0,s0,t3
     210:	01d46433          	or	s0,s0,t4
     214:	00143413          	seqz	s0,s0
     218:	0082b023          	sd	s0,0(t0)
     21c:	0002b423          	sd	zero,8(t0)
     220:	0002b823          	sd	zero,16(t0)
     224:	0002bc23          	sd	zero,24(t0)
     228:	00198993          	addi	s3,s3,1
     22c:	00600513          	li	a0,6
     230:	dd1ff0ef          	jal	0 <evm_entry>
     234:	00600513          	li	a0,6
     238:	dc9ff0ef          	jal	0 <evm_entry>
     23c:	00599313          	slli	t1,s3,0x5
     240:	00690333          	add	t1,s2,t1
     244:	01200293          	li	t0,18
     248:	00533023          	sd	t0,0(t1)
     24c:	00000293          	li	t0,0
     250:	00533423          	sd	t0,8(t1)
     254:	00000293          	li	t0,0
     258:	00533823          	sd	t0,16(t1)
     25c:	00000293          	li	t0,0
     260:	00533c23          	sd	t0,24(t1)
     264:	00198993          	addi	s3,s3,1
     268:	00a00513          	li	a0,10
     26c:	d95ff0ef          	jal	0 <evm_entry>
     270:	00a00513          	li	a0,10
     274:	d8dff0ef          	jal	0 <evm_entry>
     278:	ffe98993          	addi	s3,s3,-2
     27c:	00599293          	slli	t0,s3,0x5
     280:	005902b3          	add	t0,s2,t0
     284:	0002b303          	ld	t1,0(t0)
     288:	0082b383          	ld	t2,8(t0)
     28c:	00038e63          	beqz	t2,2a8 <jumpi_skip_0>
     290:	00231313          	slli	t1,t1,0x2
     294:	00000e17          	auipc	t3,0x0
     298:	000e0e13          	mv	t3,t3
     29c:	006e0e33          	add	t3,t3,t1
     2a0:	000e2e83          	lw	t4,0(t3) # 294 <evm_entry+0x294>
     2a4:	000e8067          	jr	t4

00000000000002a8 <jumpi_skip_0>:
     2a8:	00300513          	li	a0,3
     2ac:	d55ff0ef          	jal	0 <evm_entry>
     2b0:	00600513          	li	a0,6
     2b4:	d4dff0ef          	jal	0 <evm_entry>
     2b8:	00599313          	slli	t1,s3,0x5
     2bc:	00690333          	add	t1,s2,t1
     2c0:	00000293          	li	t0,0
     2c4:	00533023          	sd	t0,0(t1)
     2c8:	00000293          	li	t0,0
     2cc:	00533423          	sd	t0,8(t1)
     2d0:	00000293          	li	t0,0
     2d4:	00533823          	sd	t0,16(t1)
     2d8:	00000293          	li	t0,0
     2dc:	00533c23          	sd	t0,24(t1)
     2e0:	00198993          	addi	s3,s3,1
     2e4:	00400513          	li	a0,4
     2e8:	d19ff0ef          	jal	0 <evm_entry>
     2ec:	fff98293          	addi	t0,s3,-1
     2f0:	00529293          	slli	t0,t0,0x5
     2f4:	005902b3          	add	t0,s2,t0
     2f8:	00599313          	slli	t1,s3,0x5
     2fc:	00690333          	add	t1,s2,t1
     300:	0002b383          	ld	t2,0(t0)
     304:	0082be03          	ld	t3,8(t0)
     308:	0102be83          	ld	t4,16(t0)
     30c:	0182bf03          	ld	t5,24(t0)
     310:	00733023          	sd	t2,0(t1)
     314:	01c33423          	sd	t3,8(t1)
     318:	01d33823          	sd	t4,16(t1)
     31c:	01e33c23          	sd	t5,24(t1)
     320:	00198993          	addi	s3,s3,1
     324:	00a00513          	li	a0,10
     328:	cd9ff0ef          	jal	0 <evm_entry>
     32c:	ffe98993          	addi	s3,s3,-2
     330:	00599293          	slli	t0,s3,0x5
     334:	005902b3          	add	t0,s2,t0
     338:	0002b503          	ld	a0,0(t0)
     33c:	0082b583          	ld	a1,8(t0)
     340:	00850533          	add	a0,a0,s0
     344:	cbdff0ef          	jal	0 <evm_entry>
     348:	00300513          	li	a0,3
     34c:	cb5ff0ef          	jal	0 <evm_entry>

0000000000000350 <jumpdest_0>:
     350:	00300513          	li	a0,3
     354:	cadff0ef          	jal	0 <evm_entry>
     358:	00200513          	li	a0,2
     35c:	ca5ff0ef          	jal	0 <evm_entry>
     360:	fff98993          	addi	s3,s3,-1
     364:	00900513          	li	a0,9
     368:	c99ff0ef          	jal	0 <evm_entry>
     36c:	00600513          	li	a0,6
     370:	c91ff0ef          	jal	0 <evm_entry>
     374:	00599313          	slli	t1,s3,0x5
     378:	00690333          	add	t1,s2,t1
     37c:	2e300293          	li	t0,739
     380:	00533023          	sd	t0,0(t1)
     384:	00000293          	li	t0,0
     388:	00533423          	sd	t0,8(t1)
     38c:	00000293          	li	t0,0
     390:	00533823          	sd	t0,16(t1)
     394:	00000293          	li	t0,0
     398:	00533c23          	sd	t0,24(t1)
     39c:	00198993          	addi	s3,s3,1
     3a0:	00400513          	li	a0,4
     3a4:	c5dff0ef          	jal	0 <evm_entry>
     3a8:	fff98293          	addi	t0,s3,-1
     3ac:	00529293          	slli	t0,t0,0x5
     3b0:	005902b3          	add	t0,s2,t0
     3b4:	00599313          	slli	t1,s3,0x5
     3b8:	00690333          	add	t1,s2,t1
     3bc:	0002b383          	ld	t2,0(t0)
     3c0:	0082be03          	ld	t3,8(t0)
     3c4:	0102be83          	ld	t4,16(t0)
     3c8:	0182bf03          	ld	t5,24(t0)
     3cc:	00733023          	sd	t2,0(t1)
     3d0:	01c33423          	sd	t3,8(t1)
     3d4:	01d33823          	sd	t4,16(t1)
     3d8:	01e33c23          	sd	t5,24(t1)
     3dc:	00198993          	addi	s3,s3,1
     3e0:	00900513          	li	a0,9
     3e4:	c1dff0ef          	jal	0 <evm_entry>
     3e8:	00600513          	li	a0,6
     3ec:	c15ff0ef          	jal	0 <evm_entry>
     3f0:	00599313          	slli	t1,s3,0x5
     3f4:	00690333          	add	t1,s2,t1
     3f8:	02000293          	li	t0,32
     3fc:	00533023          	sd	t0,0(t1)
     400:	00000293          	li	t0,0
     404:	00533423          	sd	t0,8(t1)
     408:	00000293          	li	t0,0
     40c:	00533823          	sd	t0,16(t1)
     410:	00000293          	li	t0,0
     414:	00533c23          	sd	t0,24(t1)
     418:	00198993          	addi	s3,s3,1
     41c:	00300513          	li	a0,3
     420:	be1ff0ef          	jal	0 <evm_entry>
     424:	00600513          	li	a0,6
     428:	bd9ff0ef          	jal	0 <evm_entry>
     42c:	00599313          	slli	t1,s3,0x5
     430:	00690333          	add	t1,s2,t1
     434:	00000293          	li	t0,0
     438:	00533023          	sd	t0,0(t1)
     43c:	00000293          	li	t0,0
     440:	00533423          	sd	t0,8(t1)
     444:	00000293          	li	t0,0
     448:	00533823          	sd	t0,16(t1)
     44c:	00000293          	li	t0,0
     450:	00533c23          	sd	t0,24(t1)
     454:	00198993          	addi	s3,s3,1
     458:	00300513          	li	a0,3
     45c:	ba5ff0ef          	jal	0 <evm_entry>
     460:	00300513          	li	a0,3
     464:	b9dff0ef          	jal	0 <evm_entry>
     468:	00600513          	li	a0,6
     46c:	b95ff0ef          	jal	0 <evm_entry>
     470:	00599313          	slli	t1,s3,0x5
     474:	00690333          	add	t1,s2,t1
     478:	00000293          	li	t0,0
     47c:	00533023          	sd	t0,0(t1)
     480:	00000293          	li	t0,0
     484:	00533423          	sd	t0,8(t1)
     488:	00000293          	li	t0,0
     48c:	00533823          	sd	t0,16(t1)
     490:	00000293          	li	t0,0
     494:	00533c23          	sd	t0,24(t1)
     498:	00198993          	addi	s3,s3,1
     49c:	00a00513          	li	a0,10
     4a0:	b61ff0ef          	jal	0 <evm_entry>
     4a4:	ffe98993          	addi	s3,s3,-2
     4a8:	00599293          	slli	t0,s3,0x5
     4ac:	005902b3          	add	t0,s2,t0
     4b0:	0002b503          	ld	a0,0(t0)
     4b4:	0082b583          	ld	a1,8(t0)
     4b8:	00850533          	add	a0,a0,s0
     4bc:	b45ff0ef          	jal	0 <evm_entry>
     4c0:	00300513          	li	a0,3
     4c4:	b3dff0ef          	jal	0 <evm_entry>

00000000000004c8 <jumpdest_1>:
     4c8:	00300513          	li	a0,3
     4cc:	b35ff0ef          	jal	0 <evm_entry>
     4d0:	00200513          	li	a0,2
     4d4:	b2dff0ef          	jal	0 <evm_entry>
     4d8:	fff98993          	addi	s3,s3,-1
     4dc:	00600513          	li	a0,6
     4e0:	b21ff0ef          	jal	0 <evm_entry>
     4e4:	00600513          	li	a0,6
     4e8:	b19ff0ef          	jal	0 <evm_entry>
     4ec:	00599313          	slli	t1,s3,0x5
     4f0:	00690333          	add	t1,s2,t1
     4f4:	00400293          	li	t0,4
     4f8:	00533023          	sd	t0,0(t1)
     4fc:	00000293          	li	t0,0
     500:	00533423          	sd	t0,8(t1)
     504:	00000293          	li	t0,0
     508:	00533823          	sd	t0,16(t1)
     50c:	00000293          	li	t0,0
     510:	00533c23          	sd	t0,24(t1)
     514:	00198993          	addi	s3,s3,1
     518:	00300513          	li	a0,3
     51c:	ae5ff0ef          	jal	0 <evm_entry>
     520:	00198993          	addi	s3,s3,1
     524:	00300513          	li	a0,3
     528:	ad9ff0ef          	jal	0 <evm_entry>
     52c:	ffe98993          	addi	s3,s3,-2
     530:	00599293          	slli	t0,s3,0x5
     534:	005902b3          	add	t0,s2,t0
     538:	0382b303          	ld	t1,56(t0)
     53c:	0182b383          	ld	t2,24(t0)
     540:	04734063          	blt	t1,t2,580 <lt_true_0>
     544:	0463c263          	blt	t2,t1,588 <lt_false_0>
     548:	0302b303          	ld	t1,48(t0)
     54c:	0102b383          	ld	t2,16(t0)
     550:	02734863          	blt	t1,t2,580 <lt_true_0>
     554:	0263ca63          	blt	t2,t1,588 <lt_false_0>
     558:	0282b303          	ld	t1,40(t0)
     55c:	0082b383          	ld	t2,8(t0)
     560:	02734063          	blt	t1,t2,580 <lt_true_0>
     564:	0263c263          	blt	t2,t1,588 <lt_false_0>
     568:	0202b303          	ld	t1,32(t0)
     56c:	0002b383          	ld	t2,0(t0)
     570:	00734863          	blt	t1,t2,580 <lt_true_0>
     574:	0063ca63          	blt	t2,t1,588 <lt_false_0>
     578:	00000413          	li	s0,0
     57c:	0100006f          	j	58c <lt_done_0>

0000000000000580 <lt_true_0>:
     580:	00100413          	li	s0,1
     584:	0080006f          	j	58c <lt_done_0>

0000000000000588 <lt_false_0>:
     588:	00000413          	li	s0,0

000000000000058c <lt_done_0>:
     58c:	0082b023          	sd	s0,0(t0)
     590:	0002b423          	sd	zero,8(t0)
     594:	0002b823          	sd	zero,16(t0)
     598:	0002bc23          	sd	zero,24(t0)
     59c:	00198993          	addi	s3,s3,1
     5a0:	00900513          	li	a0,9
     5a4:	a5dff0ef          	jal	0 <evm_entry>
     5a8:	00600513          	li	a0,6
     5ac:	a55ff0ef          	jal	0 <evm_entry>
     5b0:	00599313          	slli	t1,s3,0x5
     5b4:	00690333          	add	t1,s2,t1
     5b8:	04a00293          	li	t0,74
     5bc:	00533023          	sd	t0,0(t1)
     5c0:	00000293          	li	t0,0
     5c4:	00533423          	sd	t0,8(t1)
     5c8:	00000293          	li	t0,0
     5cc:	00533823          	sd	t0,16(t1)
     5d0:	00000293          	li	t0,0
     5d4:	00533c23          	sd	t0,24(t1)
     5d8:	00198993          	addi	s3,s3,1
     5dc:	00a00513          	li	a0,10
     5e0:	a21ff0ef          	jal	0 <evm_entry>
     5e4:	00a00513          	li	a0,10
     5e8:	a19ff0ef          	jal	0 <evm_entry>
     5ec:	ffe98993          	addi	s3,s3,-2
     5f0:	00599293          	slli	t0,s3,0x5
     5f4:	005902b3          	add	t0,s2,t0
     5f8:	0002b303          	ld	t1,0(t0)
     5fc:	0082b383          	ld	t2,8(t0)
     600:	00038e63          	beqz	t2,61c <jumpi_skip_1>
     604:	00231313          	slli	t1,t1,0x2
     608:	00000e17          	auipc	t3,0x0
     60c:	000e0e13          	mv	t3,t3
     610:	006e0e33          	add	t3,t3,t1
     614:	000e2e83          	lw	t4,0(t3) # 608 <lt_done_0+0x7c>
     618:	000e8067          	jr	t4

000000000000061c <jumpi_skip_1>:
     61c:	00300513          	li	a0,3
     620:	9e1ff0ef          	jal	0 <evm_entry>
     624:	00600513          	li	a0,6
     628:	9d9ff0ef          	jal	0 <evm_entry>
     62c:	00599313          	slli	t1,s3,0x5
     630:	00690333          	add	t1,s2,t1
     634:	00000293          	li	t0,0
     638:	00533023          	sd	t0,0(t1)
     63c:	00000293          	li	t0,0
     640:	00533423          	sd	t0,8(t1)
     644:	00000293          	li	t0,0
     648:	00533823          	sd	t0,16(t1)
     64c:	00000293          	li	t0,0
     650:	00533c23          	sd	t0,24(t1)
     654:	00198993          	addi	s3,s3,1
     658:	00300513          	li	a0,3
     65c:	9a5ff0ef          	jal	0 <evm_entry>
     660:	00600513          	li	a0,6
     664:	99dff0ef          	jal	0 <evm_entry>
     668:	00600513          	li	a0,6
     66c:	995ff0ef          	jal	0 <evm_entry>
     670:	00599313          	slli	t1,s3,0x5
     674:	00690333          	add	t1,s2,t1
     678:	0e000293          	li	t0,224
     67c:	00533023          	sd	t0,0(t1)
     680:	00000293          	li	t0,0
     684:	00533423          	sd	t0,8(t1)
     688:	00000293          	li	t0,0
     68c:	00533823          	sd	t0,16(t1)
     690:	00000293          	li	t0,0
     694:	00533c23          	sd	t0,24(t1)
     698:	00198993          	addi	s3,s3,1
     69c:	00300513          	li	a0,3
     6a0:	961ff0ef          	jal	0 <evm_entry>
     6a4:	ffe98993          	addi	s3,s3,-2
     6a8:	00599293          	slli	t0,s3,0x5
     6ac:	005902b3          	add	t0,s2,t0
     6b0:	0002b303          	ld	t1,0(t0)
     6b4:	0082b383          	ld	t2,8(t0)
     6b8:	0102be03          	ld	t3,16(t0)
     6bc:	0182be83          	ld	t4,24(t0)
     6c0:	0202bf03          	ld	t5,32(t0)
     6c4:	04000f93          	li	t6,64
     6c8:	05f35863          	bge	t1,t6,718 <shr_zero>
     6cc:	006f59b3          	srl	s3,t5,t1
     6d0:	406f85b3          	sub	a1,t6,t1
     6d4:	00be9633          	sll	a2,t4,a1
     6d8:	00c9e9b3          	or	s3,s3,a2
     6dc:	006ed933          	srl	s2,t4,t1
     6e0:	406f85b3          	sub	a1,t6,t1
     6e4:	00be1633          	sll	a2,t3,a1
     6e8:	00c96933          	or	s2,s2,a2
     6ec:	006e54b3          	srl	s1,t3,t1
     6f0:	406f85b3          	sub	a1,t6,t1
     6f4:	00b39633          	sll	a2,t2,a1
     6f8:	00c4e4b3          	or	s1,s1,a2
     6fc:	0063d433          	srl	s0,t2,t1
     700:	0082b023          	sd	s0,0(t0)
     704:	0092b423          	sd	s1,8(t0)
     708:	0122b823          	sd	s2,16(t0)
     70c:	0132bc23          	sd	s3,24(t0)
     710:	00198993          	addi	s3,s3,1
     714:	0180006f          	j	72c <shr_done>

0000000000000718 <shr_zero>:
     718:	0002b023          	sd	zero,0(t0)
     71c:	0002b423          	sd	zero,8(t0)
     720:	0002b823          	sd	zero,16(t0)
     724:	0002bc23          	sd	zero,24(t0)
     728:	00198993          	addi	s3,s3,1

000000000000072c <shr_done>:
     72c:	00400513          	li	a0,4
     730:	8d1ff0ef          	jal	0 <evm_entry>
     734:	fff98293          	addi	t0,s3,-1
     738:	00529293          	slli	t0,t0,0x5
     73c:	005902b3          	add	t0,s2,t0
     740:	00599313          	slli	t1,s3,0x5
     744:	00690333          	add	t1,s2,t1
     748:	0002b383          	ld	t2,0(t0)
     74c:	0082be03          	ld	t3,8(t0)
     750:	0102be83          	ld	t4,16(t0)
     754:	0182bf03          	ld	t5,24(t0)
     758:	00733023          	sd	t2,0(t1)
     75c:	01c33423          	sd	t3,8(t1)
     760:	01d33823          	sd	t4,16(t1)
     764:	01e33c23          	sd	t5,24(t1)
     768:	00198993          	addi	s3,s3,1
     76c:	00f00513          	li	a0,15
     770:	891ff0ef          	jal	0 <evm_entry>
     774:	00600513          	li	a0,6
     778:	889ff0ef          	jal	0 <evm_entry>
     77c:	00599313          	slli	t1,s3,0x5
     780:	00690333          	add	t1,s2,t1
     784:	131e32b7          	lui	t0,0x131e3
     788:	f182829b          	addiw	t0,t0,-232 # 131e2f18 <jumpdest_57+0x131dbe2c>
     78c:	00533023          	sd	t0,0(t1)
     790:	00000293          	li	t0,0
     794:	00533423          	sd	t0,8(t1)
     798:	00000293          	li	t0,0
     79c:	00533823          	sd	t0,16(t1)
     7a0:	00000293          	li	t0,0
     7a4:	00533c23          	sd	t0,24(t1)
     7a8:	00198993          	addi	s3,s3,1
     7ac:	00300513          	li	a0,3
     7b0:	851ff0ef          	jal	0 <evm_entry>
     7b4:	ffe98993          	addi	s3,s3,-2
     7b8:	00599293          	slli	t0,s3,0x5
     7bc:	005902b3          	add	t0,s2,t0
     7c0:	0002b303          	ld	t1,0(t0)
     7c4:	0082b383          	ld	t2,8(t0)
     7c8:	0102be03          	ld	t3,16(t0)
     7cc:	0182be83          	ld	t4,24(t0)
     7d0:	0202bf03          	ld	t5,32(t0)
     7d4:	0282bf83          	ld	t6,40(t0)
     7d8:	0302b503          	ld	a0,48(t0)
     7dc:	0382b583          	ld	a1,56(t0)
     7e0:	01e34433          	xor	s0,t1,t5
     7e4:	01f3c4b3          	xor	s1,t2,t6
     7e8:	00ae4933          	xor	s2,t3,a0
     7ec:	00bec9b3          	xor	s3,t4,a1
     7f0:	00946433          	or	s0,s0,s1
     7f4:	01246433          	or	s0,s0,s2
     7f8:	01346433          	or	s0,s0,s3
     7fc:	00143413          	seqz	s0,s0
     800:	0082b023          	sd	s0,0(t0)
     804:	0002b423          	sd	zero,8(t0)
     808:	0002b823          	sd	zero,16(t0)
     80c:	0002bc23          	sd	zero,24(t0)
     810:	00198993          	addi	s3,s3,1
     814:	00900513          	li	a0,9
     818:	fe8ff0ef          	jal	0 <evm_entry>
     81c:	00600513          	li	a0,6
     820:	fe0ff0ef          	jal	0 <evm_entry>
     824:	00599313          	slli	t1,s3,0x5
     828:	00690333          	add	t1,s2,t1
     82c:	04e00293          	li	t0,78
     830:	00533023          	sd	t0,0(t1)
     834:	00000293          	li	t0,0
     838:	00533423          	sd	t0,8(t1)
     83c:	00000293          	li	t0,0
     840:	00533823          	sd	t0,16(t1)
     844:	00000293          	li	t0,0
     848:	00533c23          	sd	t0,24(t1)
     84c:	00198993          	addi	s3,s3,1
     850:	00a00513          	li	a0,10
     854:	facff0ef          	jal	0 <evm_entry>
     858:	00a00513          	li	a0,10
     85c:	fa4ff0ef          	jal	0 <evm_entry>
     860:	ffe98993          	addi	s3,s3,-2
     864:	00599293          	slli	t0,s3,0x5
     868:	005902b3          	add	t0,s2,t0
     86c:	0002b303          	ld	t1,0(t0)
     870:	0082b383          	ld	t2,8(t0)
     874:	00038e63          	beqz	t2,890 <jumpi_skip_2>
     878:	00231313          	slli	t1,t1,0x2
     87c:	00000e17          	auipc	t3,0x0
     880:	000e0e13          	mv	t3,t3
     884:	006e0e33          	add	t3,t3,t1
     888:	000e2e83          	lw	t4,0(t3) # 87c <shr_done+0x150>
     88c:	000e8067          	jr	t4

0000000000000890 <jumpi_skip_2>:
     890:	00400513          	li	a0,4
     894:	f6cff0ef          	jal	0 <evm_entry>
     898:	fff98293          	addi	t0,s3,-1
     89c:	00529293          	slli	t0,t0,0x5
     8a0:	005902b3          	add	t0,s2,t0
     8a4:	00599313          	slli	t1,s3,0x5
     8a8:	00690333          	add	t1,s2,t1
     8ac:	0002b383          	ld	t2,0(t0)
     8b0:	0082be03          	ld	t3,8(t0)
     8b4:	0102be83          	ld	t4,16(t0)
     8b8:	0182bf03          	ld	t5,24(t0)
     8bc:	00733023          	sd	t2,0(t1)
     8c0:	01c33423          	sd	t3,8(t1)
     8c4:	01d33823          	sd	t4,16(t1)
     8c8:	01e33c23          	sd	t5,24(t1)
     8cc:	00198993          	addi	s3,s3,1
     8d0:	00f00513          	li	a0,15
     8d4:	f2cff0ef          	jal	0 <evm_entry>
     8d8:	00600513          	li	a0,6
     8dc:	f24ff0ef          	jal	0 <evm_entry>
     8e0:	00599313          	slli	t1,s3,0x5
     8e4:	00690333          	add	t1,s2,t1
     8e8:	188b82b7          	lui	t0,0x188b8
     8ec:	5b42829b          	addiw	t0,t0,1460 # 188b85b4 <jumpdest_57+0x188b14c8>
     8f0:	00533023          	sd	t0,0(t1)
     8f4:	00000293          	li	t0,0
     8f8:	00533423          	sd	t0,8(t1)
     8fc:	00000293          	li	t0,0
     900:	00533823          	sd	t0,16(t1)
     904:	00000293          	li	t0,0
     908:	00533c23          	sd	t0,24(t1)
     90c:	00198993          	addi	s3,s3,1
     910:	00300513          	li	a0,3
     914:	eecff0ef          	jal	0 <evm_entry>
     918:	ffe98993          	addi	s3,s3,-2
     91c:	00599293          	slli	t0,s3,0x5
     920:	005902b3          	add	t0,s2,t0
     924:	0002b303          	ld	t1,0(t0)
     928:	0082b383          	ld	t2,8(t0)
     92c:	0102be03          	ld	t3,16(t0)
     930:	0182be83          	ld	t4,24(t0)
     934:	0202bf03          	ld	t5,32(t0)
     938:	0282bf83          	ld	t6,40(t0)
     93c:	0302b503          	ld	a0,48(t0)
     940:	0382b583          	ld	a1,56(t0)
     944:	01e34433          	xor	s0,t1,t5
     948:	01f3c4b3          	xor	s1,t2,t6
     94c:	00ae4933          	xor	s2,t3,a0
     950:	00bec9b3          	xor	s3,t4,a1
     954:	00946433          	or	s0,s0,s1
     958:	01246433          	or	s0,s0,s2
     95c:	01346433          	or	s0,s0,s3
     960:	00143413          	seqz	s0,s0
     964:	0082b023          	sd	s0,0(t0)
     968:	0002b423          	sd	zero,8(t0)
     96c:	0002b823          	sd	zero,16(t0)
     970:	0002bc23          	sd	zero,24(t0)
     974:	00198993          	addi	s3,s3,1
     978:	00900513          	li	a0,9
     97c:	e84ff0ef          	jal	0 <evm_entry>
     980:	00600513          	li	a0,6
     984:	e7cff0ef          	jal	0 <evm_entry>
     988:	00599313          	slli	t1,s3,0x5
     98c:	00690333          	add	t1,s2,t1
     990:	07e00293          	li	t0,126
     994:	00533023          	sd	t0,0(t1)
     998:	00000293          	li	t0,0
     99c:	00533423          	sd	t0,8(t1)
     9a0:	00000293          	li	t0,0
     9a4:	00533823          	sd	t0,16(t1)
     9a8:	00000293          	li	t0,0
     9ac:	00533c23          	sd	t0,24(t1)
     9b0:	00198993          	addi	s3,s3,1
     9b4:	00a00513          	li	a0,10
     9b8:	e48ff0ef          	jal	0 <evm_entry>
     9bc:	00a00513          	li	a0,10
     9c0:	e40ff0ef          	jal	0 <evm_entry>
     9c4:	ffe98993          	addi	s3,s3,-2
     9c8:	00599293          	slli	t0,s3,0x5
     9cc:	005902b3          	add	t0,s2,t0
     9d0:	0002b303          	ld	t1,0(t0)
     9d4:	0082b383          	ld	t2,8(t0)
     9d8:	00038e63          	beqz	t2,9f4 <jumpi_skip_3>
     9dc:	00231313          	slli	t1,t1,0x2
     9e0:	00000e17          	auipc	t3,0x0
     9e4:	000e0e13          	mv	t3,t3
     9e8:	006e0e33          	add	t3,t3,t1
     9ec:	000e2e83          	lw	t4,0(t3) # 9e0 <jumpi_skip_2+0x150>
     9f0:	000e8067          	jr	t4

00000000000009f4 <jumpi_skip_3>:
     9f4:	00400513          	li	a0,4
     9f8:	e08ff0ef          	jal	0 <evm_entry>
     9fc:	fff98293          	addi	t0,s3,-1
     a00:	00529293          	slli	t0,t0,0x5
     a04:	005902b3          	add	t0,s2,t0
     a08:	00599313          	slli	t1,s3,0x5
     a0c:	00690333          	add	t1,s2,t1
     a10:	0002b383          	ld	t2,0(t0)
     a14:	0082be03          	ld	t3,8(t0)
     a18:	0102be83          	ld	t4,16(t0)
     a1c:	0182bf03          	ld	t5,24(t0)
     a20:	00733023          	sd	t2,0(t1)
     a24:	01c33423          	sd	t3,8(t1)
     a28:	01d33823          	sd	t4,16(t1)
     a2c:	01e33c23          	sd	t5,24(t1)
     a30:	00198993          	addi	s3,s3,1
     a34:	00f00513          	li	a0,15
     a38:	dc8ff0ef          	jal	0 <evm_entry>
     a3c:	00600513          	li	a0,6
     a40:	dc0ff0ef          	jal	0 <evm_entry>
     a44:	00599313          	slli	t1,s3,0x5
     a48:	00690333          	add	t1,s2,t1
     a4c:	27ee62b7          	lui	t0,0x27ee6
     a50:	8a62829b          	addiw	t0,t0,-1882 # 27ee58a6 <jumpdest_57+0x27ede7ba>
     a54:	00533023          	sd	t0,0(t1)
     a58:	00000293          	li	t0,0
     a5c:	00533423          	sd	t0,8(t1)
     a60:	00000293          	li	t0,0
     a64:	00533823          	sd	t0,16(t1)
     a68:	00000293          	li	t0,0
     a6c:	00533c23          	sd	t0,24(t1)
     a70:	00198993          	addi	s3,s3,1
     a74:	00300513          	li	a0,3
     a78:	d88ff0ef          	jal	0 <evm_entry>
     a7c:	ffe98993          	addi	s3,s3,-2
     a80:	00599293          	slli	t0,s3,0x5
     a84:	005902b3          	add	t0,s2,t0
     a88:	0002b303          	ld	t1,0(t0)
     a8c:	0082b383          	ld	t2,8(t0)
     a90:	0102be03          	ld	t3,16(t0)
     a94:	0182be83          	ld	t4,24(t0)
     a98:	0202bf03          	ld	t5,32(t0)
     a9c:	0282bf83          	ld	t6,40(t0)
     aa0:	0302b503          	ld	a0,48(t0)
     aa4:	0382b583          	ld	a1,56(t0)
     aa8:	01e34433          	xor	s0,t1,t5
     aac:	01f3c4b3          	xor	s1,t2,t6
     ab0:	00ae4933          	xor	s2,t3,a0
     ab4:	00bec9b3          	xor	s3,t4,a1
     ab8:	00946433          	or	s0,s0,s1
     abc:	01246433          	or	s0,s0,s2
     ac0:	01346433          	or	s0,s0,s3
     ac4:	00143413          	seqz	s0,s0
     ac8:	0082b023          	sd	s0,0(t0)
     acc:	0002b423          	sd	zero,8(t0)
     ad0:	0002b823          	sd	zero,16(t0)
     ad4:	0002bc23          	sd	zero,24(t0)
     ad8:	00198993          	addi	s3,s3,1
     adc:	00900513          	li	a0,9
     ae0:	d20ff0ef          	jal	0 <evm_entry>
     ae4:	00600513          	li	a0,6
     ae8:	d18ff0ef          	jal	0 <evm_entry>
     aec:	00599313          	slli	t1,s3,0x5
     af0:	00690333          	add	t1,s2,t1
     af4:	0ae00293          	li	t0,174
     af8:	00533023          	sd	t0,0(t1)
     afc:	00000293          	li	t0,0
     b00:	00533423          	sd	t0,8(t1)
     b04:	00000293          	li	t0,0
     b08:	00533823          	sd	t0,16(t1)
     b0c:	00000293          	li	t0,0
     b10:	00533c23          	sd	t0,24(t1)
     b14:	00198993          	addi	s3,s3,1
     b18:	00a00513          	li	a0,10
     b1c:	ce4ff0ef          	jal	0 <evm_entry>
     b20:	00a00513          	li	a0,10
     b24:	cdcff0ef          	jal	0 <evm_entry>
     b28:	ffe98993          	addi	s3,s3,-2
     b2c:	00599293          	slli	t0,s3,0x5
     b30:	005902b3          	add	t0,s2,t0
     b34:	0002b303          	ld	t1,0(t0)
     b38:	0082b383          	ld	t2,8(t0)
     b3c:	00038e63          	beqz	t2,b58 <jumpi_skip_4>
     b40:	00231313          	slli	t1,t1,0x2
     b44:	00000e17          	auipc	t3,0x0
     b48:	000e0e13          	mv	t3,t3
     b4c:	006e0e33          	add	t3,t3,t1
     b50:	000e2e83          	lw	t4,0(t3) # b44 <jumpi_skip_3+0x150>
     b54:	000e8067          	jr	t4

0000000000000b58 <jumpi_skip_4>:
     b58:	00400513          	li	a0,4
     b5c:	ca4ff0ef          	jal	0 <evm_entry>
     b60:	fff98293          	addi	t0,s3,-1
     b64:	00529293          	slli	t0,t0,0x5
     b68:	005902b3          	add	t0,s2,t0
     b6c:	00599313          	slli	t1,s3,0x5
     b70:	00690333          	add	t1,s2,t1
     b74:	0002b383          	ld	t2,0(t0)
     b78:	0082be03          	ld	t3,8(t0)
     b7c:	0102be83          	ld	t4,16(t0)
     b80:	0182bf03          	ld	t5,24(t0)
     b84:	00733023          	sd	t2,0(t1)
     b88:	01c33423          	sd	t3,8(t1)
     b8c:	01d33823          	sd	t4,16(t1)
     b90:	01e33c23          	sd	t5,24(t1)
     b94:	00198993          	addi	s3,s3,1
     b98:	00f00513          	li	a0,15
     b9c:	c64ff0ef          	jal	0 <evm_entry>
     ba0:	00600513          	li	a0,6
     ba4:	c5cff0ef          	jal	0 <evm_entry>
     ba8:	00599313          	slli	t1,s3,0x5
     bac:	00690333          	add	t1,s2,t1
     bb0:	67e922b7          	lui	t0,0x67e92
     bb4:	9b62829b          	addiw	t0,t0,-1610 # 67e919b6 <jumpdest_57+0x67e8a8ca>
     bb8:	00533023          	sd	t0,0(t1)
     bbc:	00000293          	li	t0,0
     bc0:	00533423          	sd	t0,8(t1)
     bc4:	00000293          	li	t0,0
     bc8:	00533823          	sd	t0,16(t1)
     bcc:	00000293          	li	t0,0
     bd0:	00533c23          	sd	t0,24(t1)
     bd4:	00198993          	addi	s3,s3,1
     bd8:	00300513          	li	a0,3
     bdc:	c24ff0ef          	jal	0 <evm_entry>
     be0:	ffe98993          	addi	s3,s3,-2
     be4:	00599293          	slli	t0,s3,0x5
     be8:	005902b3          	add	t0,s2,t0
     bec:	0002b303          	ld	t1,0(t0)
     bf0:	0082b383          	ld	t2,8(t0)
     bf4:	0102be03          	ld	t3,16(t0)
     bf8:	0182be83          	ld	t4,24(t0)
     bfc:	0202bf03          	ld	t5,32(t0)
     c00:	0282bf83          	ld	t6,40(t0)
     c04:	0302b503          	ld	a0,48(t0)
     c08:	0382b583          	ld	a1,56(t0)
     c0c:	01e34433          	xor	s0,t1,t5
     c10:	01f3c4b3          	xor	s1,t2,t6
     c14:	00ae4933          	xor	s2,t3,a0
     c18:	00bec9b3          	xor	s3,t4,a1
     c1c:	00946433          	or	s0,s0,s1
     c20:	01246433          	or	s0,s0,s2
     c24:	01346433          	or	s0,s0,s3
     c28:	00143413          	seqz	s0,s0
     c2c:	0082b023          	sd	s0,0(t0)
     c30:	0002b423          	sd	zero,8(t0)
     c34:	0002b823          	sd	zero,16(t0)
     c38:	0002bc23          	sd	zero,24(t0)
     c3c:	00198993          	addi	s3,s3,1
     c40:	00900513          	li	a0,9
     c44:	bbcff0ef          	jal	0 <evm_entry>
     c48:	00600513          	li	a0,6
     c4c:	bb4ff0ef          	jal	0 <evm_entry>
     c50:	00599313          	slli	t1,s3,0x5
     c54:	00690333          	add	t1,s2,t1
     c58:	0de00293          	li	t0,222
     c5c:	00533023          	sd	t0,0(t1)
     c60:	00000293          	li	t0,0
     c64:	00533423          	sd	t0,8(t1)
     c68:	00000293          	li	t0,0
     c6c:	00533823          	sd	t0,16(t1)
     c70:	00000293          	li	t0,0
     c74:	00533c23          	sd	t0,24(t1)
     c78:	00198993          	addi	s3,s3,1
     c7c:	00a00513          	li	a0,10
     c80:	b80ff0ef          	jal	0 <evm_entry>
     c84:	00a00513          	li	a0,10
     c88:	b78ff0ef          	jal	0 <evm_entry>
     c8c:	ffe98993          	addi	s3,s3,-2
     c90:	00599293          	slli	t0,s3,0x5
     c94:	005902b3          	add	t0,s2,t0
     c98:	0002b303          	ld	t1,0(t0)
     c9c:	0082b383          	ld	t2,8(t0)
     ca0:	00038e63          	beqz	t2,cbc <jumpi_skip_5>
     ca4:	00231313          	slli	t1,t1,0x2
     ca8:	00000e17          	auipc	t3,0x0
     cac:	000e0e13          	mv	t3,t3
     cb0:	006e0e33          	add	t3,t3,t1
     cb4:	000e2e83          	lw	t4,0(t3) # ca8 <jumpi_skip_4+0x150>
     cb8:	000e8067          	jr	t4

0000000000000cbc <jumpi_skip_5>:
     cbc:	00300513          	li	a0,3
     cc0:	b40ff0ef          	jal	0 <evm_entry>

0000000000000cc4 <jumpdest_2>:
     cc4:	00300513          	li	a0,3
     cc8:	b38ff0ef          	jal	0 <evm_entry>
     ccc:	00300513          	li	a0,3
     cd0:	b30ff0ef          	jal	0 <evm_entry>
     cd4:	00600513          	li	a0,6
     cd8:	b28ff0ef          	jal	0 <evm_entry>
     cdc:	00599313          	slli	t1,s3,0x5
     ce0:	00690333          	add	t1,s2,t1
     ce4:	00000293          	li	t0,0
     ce8:	00533023          	sd	t0,0(t1)
     cec:	00000293          	li	t0,0
     cf0:	00533423          	sd	t0,8(t1)
     cf4:	00000293          	li	t0,0
     cf8:	00533823          	sd	t0,16(t1)
     cfc:	00000293          	li	t0,0
     d00:	00533c23          	sd	t0,24(t1)
     d04:	00198993          	addi	s3,s3,1
     d08:	00400513          	li	a0,4
     d0c:	af4ff0ef          	jal	0 <evm_entry>
     d10:	fff98293          	addi	t0,s3,-1
     d14:	00529293          	slli	t0,t0,0x5
     d18:	005902b3          	add	t0,s2,t0
     d1c:	00599313          	slli	t1,s3,0x5
     d20:	00690333          	add	t1,s2,t1
     d24:	0002b383          	ld	t2,0(t0)
     d28:	0082be03          	ld	t3,8(t0)
     d2c:	0102be83          	ld	t4,16(t0)
     d30:	0182bf03          	ld	t5,24(t0)
     d34:	00733023          	sd	t2,0(t1)
     d38:	01c33423          	sd	t3,8(t1)
     d3c:	01d33823          	sd	t4,16(t1)
     d40:	01e33c23          	sd	t5,24(t1)
     d44:	00198993          	addi	s3,s3,1
     d48:	00a00513          	li	a0,10
     d4c:	ab4ff0ef          	jal	0 <evm_entry>
     d50:	ffe98993          	addi	s3,s3,-2
     d54:	00599293          	slli	t0,s3,0x5
     d58:	005902b3          	add	t0,s2,t0
     d5c:	0002b503          	ld	a0,0(t0)
     d60:	0082b583          	ld	a1,8(t0)
     d64:	00850533          	add	a0,a0,s0
     d68:	a98ff0ef          	jal	0 <evm_entry>
     d6c:	00300513          	li	a0,3
     d70:	a90ff0ef          	jal	0 <evm_entry>

0000000000000d74 <jumpdest_3>:
     d74:	00300513          	li	a0,3
     d78:	a88ff0ef          	jal	0 <evm_entry>
     d7c:	00900513          	li	a0,9
     d80:	a80ff0ef          	jal	0 <evm_entry>
     d84:	00600513          	li	a0,6
     d88:	a78ff0ef          	jal	0 <evm_entry>
     d8c:	00599313          	slli	t1,s3,0x5
     d90:	00690333          	add	t1,s2,t1
     d94:	06800293          	li	t0,104
     d98:	00533023          	sd	t0,0(t1)
     d9c:	00000293          	li	t0,0
     da0:	00533423          	sd	t0,8(t1)
     da4:	00000293          	li	t0,0
     da8:	00533823          	sd	t0,16(t1)
     dac:	00000293          	li	t0,0
     db0:	00533c23          	sd	t0,24(t1)
     db4:	00198993          	addi	s3,s3,1
     db8:	00600513          	li	a0,6
     dbc:	a44ff0ef          	jal	0 <evm_entry>
     dc0:	00600513          	li	a0,6
     dc4:	a3cff0ef          	jal	0 <evm_entry>
     dc8:	00599313          	slli	t1,s3,0x5
     dcc:	00690333          	add	t1,s2,t1
     dd0:	00400293          	li	t0,4
     dd4:	00533023          	sd	t0,0(t1)
     dd8:	00000293          	li	t0,0
     ddc:	00533423          	sd	t0,8(t1)
     de0:	00000293          	li	t0,0
     de4:	00533823          	sd	t0,16(t1)
     de8:	00000293          	li	t0,0
     dec:	00533c23          	sd	t0,24(t1)
     df0:	00198993          	addi	s3,s3,1
     df4:	00400513          	li	a0,4
     df8:	a08ff0ef          	jal	0 <evm_entry>
     dfc:	fff98293          	addi	t0,s3,-1
     e00:	00529293          	slli	t0,t0,0x5
     e04:	005902b3          	add	t0,s2,t0
     e08:	00599313          	slli	t1,s3,0x5
     e0c:	00690333          	add	t1,s2,t1
     e10:	0002b383          	ld	t2,0(t0)
     e14:	0082be03          	ld	t3,8(t0)
     e18:	0102be83          	ld	t4,16(t0)
     e1c:	0182bf03          	ld	t5,24(t0)
     e20:	00733023          	sd	t2,0(t1)
     e24:	01c33423          	sd	t3,8(t1)
     e28:	01d33823          	sd	t4,16(t1)
     e2c:	01e33c23          	sd	t5,24(t1)
     e30:	00198993          	addi	s3,s3,1
     e34:	00300513          	li	a0,3
     e38:	9c8ff0ef          	jal	0 <evm_entry>
     e3c:	00198993          	addi	s3,s3,1
     e40:	00300513          	li	a0,3
     e44:	9bcff0ef          	jal	0 <evm_entry>
     e48:	ffe98993          	addi	s3,s3,-2
     e4c:	00599293          	slli	t0,s3,0x5
     e50:	005902b3          	add	t0,s2,t0
     e54:	0002b303          	ld	t1,0(t0)
     e58:	0082b383          	ld	t2,8(t0)
     e5c:	0102be03          	ld	t3,16(t0)
     e60:	0182be83          	ld	t4,24(t0)
     e64:	0202bf03          	ld	t5,32(t0)
     e68:	0282bf83          	ld	t6,40(t0)
     e6c:	0302b503          	ld	a0,48(t0)
     e70:	0382b583          	ld	a1,56(t0)
     e74:	406f0a33          	sub	s4,t5,t1
     e78:	006f3ab3          	sltu	s5,t5,t1
     e7c:	407f8b33          	sub	s6,t6,t2
     e80:	415b0b33          	sub	s6,s6,s5
     e84:	007fbab3          	sltu	s5,t6,t2
     e88:	015b3633          	sltu	a2,s6,s5
     e8c:	00caeab3          	or	s5,s5,a2
     e90:	41c50d33          	sub	s10,a0,t3
     e94:	415d0d33          	sub	s10,s10,s5
     e98:	01c53ab3          	sltu	s5,a0,t3
     e9c:	015d3633          	sltu	a2,s10,s5
     ea0:	00caeab3          	or	s5,s5,a2
     ea4:	41d58db3          	sub	s11,a1,t4
     ea8:	415d8db3          	sub	s11,s11,s5
     eac:	0142b023          	sd	s4,0(t0)
     eb0:	0162b423          	sd	s6,8(t0)
     eb4:	01a2b823          	sd	s10,16(t0)
     eb8:	01b2bc23          	sd	s11,24(t0)
     ebc:	00198993          	addi	s3,s3,1
     ec0:	00500513          	li	a0,5
     ec4:	93cff0ef          	jal	0 <evm_entry>
     ec8:	ffe98293          	addi	t0,s3,-2
     ecc:	00529293          	slli	t0,t0,0x5
     ed0:	005902b3          	add	t0,s2,t0
     ed4:	00599313          	slli	t1,s3,0x5
     ed8:	00690333          	add	t1,s2,t1
     edc:	0002b383          	ld	t2,0(t0)
     ee0:	0082be03          	ld	t3,8(t0)
     ee4:	0102be83          	ld	t4,16(t0)
     ee8:	0182bf03          	ld	t5,24(t0)
     eec:	00733023          	sd	t2,0(t1)
     ef0:	01c33423          	sd	t3,8(t1)
     ef4:	01d33823          	sd	t4,16(t1)
     ef8:	01e33c23          	sd	t5,24(t1)
     efc:	00198993          	addi	s3,s3,1
     f00:	00300513          	li	a0,3
     f04:	8fcff0ef          	jal	0 <evm_entry>
     f08:	ffe98993          	addi	s3,s3,-2
     f0c:	00599293          	slli	t0,s3,0x5
     f10:	005902b3          	add	t0,s2,t0
     f14:	0002b303          	ld	t1,0(t0)
     f18:	0082b383          	ld	t2,8(t0)
     f1c:	0102be03          	ld	t3,16(t0)
     f20:	0182be83          	ld	t4,24(t0)
     f24:	0202bf03          	ld	t5,32(t0)
     f28:	0282bf83          	ld	t6,40(t0)
     f2c:	0302b503          	ld	a0,48(t0)
     f30:	0382b583          	ld	a1,56(t0)
     f34:	01e30a33          	add	s4,t1,t5
     f38:	006a3ab3          	sltu	s5,s4,t1
     f3c:	01f38b33          	add	s6,t2,t6
     f40:	015b0b33          	add	s6,s6,s5
     f44:	007b3ab3          	sltu	s5,s6,t2
     f48:	00ae0d33          	add	s10,t3,a0
     f4c:	015d0d33          	add	s10,s10,s5
     f50:	01cd3ab3          	sltu	s5,s10,t3
     f54:	00be8db3          	add	s11,t4,a1
     f58:	015d8db3          	add	s11,s11,s5
     f5c:	0142b023          	sd	s4,0(t0)
     f60:	0162b423          	sd	s6,8(t0)
     f64:	01a2b823          	sd	s10,16(t0)
     f68:	01b2bc23          	sd	s11,24(t0)
     f6c:	00198993          	addi	s3,s3,1
     f70:	00400513          	li	a0,4
     f74:	88cff0ef          	jal	0 <evm_entry>
     f78:	00300513          	li	a0,3
     f7c:	884ff0ef          	jal	0 <evm_entry>
     f80:	fff98293          	addi	t0,s3,-1
     f84:	ffe98313          	addi	t1,s3,-2
     f88:	00529293          	slli	t0,t0,0x5
     f8c:	00531313          	slli	t1,t1,0x5
     f90:	005902b3          	add	t0,s2,t0
     f94:	00690333          	add	t1,s2,t1
     f98:	0002b383          	ld	t2,0(t0)
     f9c:	00033e03          	ld	t3,0(t1)
     fa0:	01c2b023          	sd	t3,0(t0)
     fa4:	00733023          	sd	t2,0(t1)
     fa8:	0082b383          	ld	t2,8(t0)
     fac:	00833e03          	ld	t3,8(t1)
     fb0:	01c2b423          	sd	t3,8(t0)
     fb4:	00733423          	sd	t2,8(t1)
     fb8:	0102b383          	ld	t2,16(t0)
     fbc:	01033e03          	ld	t3,16(t1)
     fc0:	01c2b823          	sd	t3,16(t0)
     fc4:	00733823          	sd	t2,16(t1)
     fc8:	0182b383          	ld	t2,24(t0)
     fcc:	01833e03          	ld	t3,24(t1)
     fd0:	01c2bc23          	sd	t3,24(t0)
     fd4:	00733c23          	sd	t2,24(t1)
     fd8:	00900513          	li	a0,9
     fdc:	824ff0ef          	jal	0 <evm_entry>
     fe0:	00600513          	li	a0,6
     fe4:	81cff0ef          	jal	0 <evm_entry>
     fe8:	00599313          	slli	t1,s3,0x5
     fec:	00690333          	add	t1,s2,t1
     ff0:	06300293          	li	t0,99
     ff4:	00533023          	sd	t0,0(t1)
     ff8:	00000293          	li	t0,0
     ffc:	00533423          	sd	t0,8(t1)
    1000:	00000293          	li	t0,0
    1004:	00533823          	sd	t0,16(t1)
    1008:	00000293          	li	t0,0
    100c:	00533c23          	sd	t0,24(t1)
    1010:	00198993          	addi	s3,s3,1
    1014:	00500513          	li	a0,5
    1018:	fe9fe0ef          	jal	0 <evm_entry>
    101c:	00300513          	li	a0,3
    1020:	fe1fe0ef          	jal	0 <evm_entry>
    1024:	fff98293          	addi	t0,s3,-1
    1028:	ffd98313          	addi	t1,s3,-3
    102c:	00529293          	slli	t0,t0,0x5
    1030:	00531313          	slli	t1,t1,0x5
    1034:	005902b3          	add	t0,s2,t0
    1038:	00690333          	add	t1,s2,t1
    103c:	0002b383          	ld	t2,0(t0)
    1040:	00033e03          	ld	t3,0(t1)
    1044:	01c2b023          	sd	t3,0(t0)
    1048:	00733023          	sd	t2,0(t1)
    104c:	0082b383          	ld	t2,8(t0)
    1050:	00833e03          	ld	t3,8(t1)
    1054:	01c2b423          	sd	t3,8(t0)
    1058:	00733423          	sd	t2,8(t1)
    105c:	0102b383          	ld	t2,16(t0)
    1060:	01033e03          	ld	t3,16(t1)
    1064:	01c2b823          	sd	t3,16(t0)
    1068:	00733823          	sd	t2,16(t1)
    106c:	0182b383          	ld	t2,24(t0)
    1070:	01833e03          	ld	t3,24(t1)
    1074:	01c2bc23          	sd	t3,24(t0)
    1078:	00733c23          	sd	t2,24(t1)
    107c:	00400513          	li	a0,4
    1080:	f81fe0ef          	jal	0 <evm_entry>
    1084:	00300513          	li	a0,3
    1088:	f79fe0ef          	jal	0 <evm_entry>
    108c:	fff98293          	addi	t0,s3,-1
    1090:	ffe98313          	addi	t1,s3,-2
    1094:	00529293          	slli	t0,t0,0x5
    1098:	00531313          	slli	t1,t1,0x5
    109c:	005902b3          	add	t0,s2,t0
    10a0:	00690333          	add	t1,s2,t1
    10a4:	0002b383          	ld	t2,0(t0)
    10a8:	00033e03          	ld	t3,0(t1)
    10ac:	01c2b023          	sd	t3,0(t0)
    10b0:	00733023          	sd	t2,0(t1)
    10b4:	0082b383          	ld	t2,8(t0)
    10b8:	00833e03          	ld	t3,8(t1)
    10bc:	01c2b423          	sd	t3,8(t0)
    10c0:	00733423          	sd	t2,8(t1)
    10c4:	0102b383          	ld	t2,16(t0)
    10c8:	01033e03          	ld	t3,16(t1)
    10cc:	01c2b823          	sd	t3,16(t0)
    10d0:	00733823          	sd	t2,16(t1)
    10d4:	0182b383          	ld	t2,24(t0)
    10d8:	01833e03          	ld	t3,24(t1)
    10dc:	01c2bc23          	sd	t3,24(t0)
    10e0:	00733c23          	sd	t2,24(t1)
    10e4:	00900513          	li	a0,9
    10e8:	f19fe0ef          	jal	0 <evm_entry>
    10ec:	00600513          	li	a0,6
    10f0:	f11fe0ef          	jal	0 <evm_entry>
    10f4:	00599313          	slli	t1,s3,0x5
    10f8:	00690333          	add	t1,s2,t1
    10fc:	18600293          	li	t0,390
    1100:	00533023          	sd	t0,0(t1)
    1104:	00000293          	li	t0,0
    1108:	00533423          	sd	t0,8(t1)
    110c:	00000293          	li	t0,0
    1110:	00533823          	sd	t0,16(t1)
    1114:	00000293          	li	t0,0
    1118:	00533c23          	sd	t0,24(t1)
    111c:	00198993          	addi	s3,s3,1
    1120:	00800513          	li	a0,8
    1124:	eddfe0ef          	jal	0 <evm_entry>
    1128:	fff98993          	addi	s3,s3,-1
    112c:	00599293          	slli	t0,s3,0x5
    1130:	005902b3          	add	t0,s2,t0
    1134:	0002b303          	ld	t1,0(t0)
    1138:	00231313          	slli	t1,t1,0x2
    113c:	00000397          	auipc	t2,0x0
    1140:	00038393          	mv	t2,t2
    1144:	006383b3          	add	t2,t2,t1
    1148:	0003ae03          	lw	t3,0(t2) # 113c <jumpdest_3+0x3c8>
    114c:	000e0067          	jr	t3
    1150:	00300513          	li	a0,3
    1154:	eadfe0ef          	jal	0 <evm_entry>

0000000000001158 <jumpdest_4>:
    1158:	00300513          	li	a0,3
    115c:	ea5fe0ef          	jal	0 <evm_entry>
    1160:	00900513          	li	a0,9
    1164:	e9dfe0ef          	jal	0 <evm_entry>
    1168:	00600513          	li	a0,6
    116c:	e95fe0ef          	jal	0 <evm_entry>
    1170:	00599313          	slli	t1,s3,0x5
    1174:	00690333          	add	t1,s2,t1
    1178:	0fc00293          	li	t0,252
    117c:	00533023          	sd	t0,0(t1)
    1180:	00000293          	li	t0,0
    1184:	00533423          	sd	t0,8(t1)
    1188:	00000293          	li	t0,0
    118c:	00533823          	sd	t0,16(t1)
    1190:	00000293          	li	t0,0
    1194:	00533c23          	sd	t0,24(t1)
    1198:	00198993          	addi	s3,s3,1
    119c:	00800513          	li	a0,8
    11a0:	e61fe0ef          	jal	0 <evm_entry>
    11a4:	fff98993          	addi	s3,s3,-1
    11a8:	00599293          	slli	t0,s3,0x5
    11ac:	005902b3          	add	t0,s2,t0
    11b0:	0002b303          	ld	t1,0(t0)
    11b4:	00231313          	slli	t1,t1,0x2
    11b8:	00000397          	auipc	t2,0x0
    11bc:	00038393          	mv	t2,t2
    11c0:	006383b3          	add	t2,t2,t1
    11c4:	0003ae03          	lw	t3,0(t2) # 11b8 <jumpdest_4+0x60>
    11c8:	000e0067          	jr	t3
    11cc:	00300513          	li	a0,3
    11d0:	e31fe0ef          	jal	0 <evm_entry>

00000000000011d4 <jumpdest_5>:
    11d4:	00300513          	li	a0,3
    11d8:	e29fe0ef          	jal	0 <evm_entry>
    11dc:	00600513          	li	a0,6
    11e0:	e21fe0ef          	jal	0 <evm_entry>
    11e4:	00600513          	li	a0,6
    11e8:	e19fe0ef          	jal	0 <evm_entry>
    11ec:	00599313          	slli	t1,s3,0x5
    11f0:	00690333          	add	t1,s2,t1
    11f4:	04000293          	li	t0,64
    11f8:	00533023          	sd	t0,0(t1)
    11fc:	00000293          	li	t0,0
    1200:	00533423          	sd	t0,8(t1)
    1204:	00000293          	li	t0,0
    1208:	00533823          	sd	t0,16(t1)
    120c:	00000293          	li	t0,0
    1210:	00533c23          	sd	t0,24(t1)
    1214:	00198993          	addi	s3,s3,1
    1218:	00300513          	li	a0,3
    121c:	de5fe0ef          	jal	0 <evm_entry>
    1220:	fff98993          	addi	s3,s3,-1
    1224:	00599293          	slli	t0,s3,0x5
    1228:	005902b3          	add	t0,s2,t0
    122c:	0002b303          	ld	t1,0(t0)
    1230:	00830333          	add	t1,t1,s0
    1234:	00033383          	ld	t2,0(t1)
    1238:	00833e03          	ld	t3,8(t1)
    123c:	01033e83          	ld	t4,16(t1)
    1240:	01833f03          	ld	t5,24(t1)
    1244:	0072b023          	sd	t2,0(t0)
    1248:	01c2b423          	sd	t3,8(t0)
    124c:	01d2b823          	sd	t4,16(t0)
    1250:	01e2bc23          	sd	t5,24(t0)
    1254:	00198993          	addi	s3,s3,1
    1258:	00900513          	li	a0,9
    125c:	da5fe0ef          	jal	0 <evm_entry>
    1260:	00600513          	li	a0,6
    1264:	d9dfe0ef          	jal	0 <evm_entry>
    1268:	00599313          	slli	t1,s3,0x5
    126c:	00690333          	add	t1,s2,t1
    1270:	07500293          	li	t0,117
    1274:	00533023          	sd	t0,0(t1)
    1278:	00000293          	li	t0,0
    127c:	00533423          	sd	t0,8(t1)
    1280:	00000293          	li	t0,0
    1284:	00533823          	sd	t0,16(t1)
    1288:	00000293          	li	t0,0
    128c:	00533c23          	sd	t0,24(t1)
    1290:	00198993          	addi	s3,s3,1
    1294:	00500513          	li	a0,5
    1298:	d69fe0ef          	jal	0 <evm_entry>
    129c:	00300513          	li	a0,3
    12a0:	d61fe0ef          	jal	0 <evm_entry>
    12a4:	fff98293          	addi	t0,s3,-1
    12a8:	ffd98313          	addi	t1,s3,-3
    12ac:	00529293          	slli	t0,t0,0x5
    12b0:	00531313          	slli	t1,t1,0x5
    12b4:	005902b3          	add	t0,s2,t0
    12b8:	00690333          	add	t1,s2,t1
    12bc:	0002b383          	ld	t2,0(t0)
    12c0:	00033e03          	ld	t3,0(t1)
    12c4:	01c2b023          	sd	t3,0(t0)
    12c8:	00733023          	sd	t2,0(t1)
    12cc:	0082b383          	ld	t2,8(t0)
    12d0:	00833e03          	ld	t3,8(t1)
    12d4:	01c2b423          	sd	t3,8(t0)
    12d8:	00733423          	sd	t2,8(t1)
    12dc:	0102b383          	ld	t2,16(t0)
    12e0:	01033e03          	ld	t3,16(t1)
    12e4:	01c2b823          	sd	t3,16(t0)
    12e8:	00733823          	sd	t2,16(t1)
    12ec:	0182b383          	ld	t2,24(t0)
    12f0:	01833e03          	ld	t3,24(t1)
    12f4:	01c2bc23          	sd	t3,24(t0)
    12f8:	00733c23          	sd	t2,24(t1)
    12fc:	00400513          	li	a0,4
    1300:	d01fe0ef          	jal	0 <evm_entry>
    1304:	00300513          	li	a0,3
    1308:	cf9fe0ef          	jal	0 <evm_entry>
    130c:	fff98293          	addi	t0,s3,-1
    1310:	ffe98313          	addi	t1,s3,-2
    1314:	00529293          	slli	t0,t0,0x5
    1318:	00531313          	slli	t1,t1,0x5
    131c:	005902b3          	add	t0,s2,t0
    1320:	00690333          	add	t1,s2,t1
    1324:	0002b383          	ld	t2,0(t0)
    1328:	00033e03          	ld	t3,0(t1)
    132c:	01c2b023          	sd	t3,0(t0)
    1330:	00733023          	sd	t2,0(t1)
    1334:	0082b383          	ld	t2,8(t0)
    1338:	00833e03          	ld	t3,8(t1)
    133c:	01c2b423          	sd	t3,8(t0)
    1340:	00733423          	sd	t2,8(t1)
    1344:	0102b383          	ld	t2,16(t0)
    1348:	01033e03          	ld	t3,16(t1)
    134c:	01c2b823          	sd	t3,16(t0)
    1350:	00733823          	sd	t2,16(t1)
    1354:	0182b383          	ld	t2,24(t0)
    1358:	01833e03          	ld	t3,24(t1)
    135c:	01c2bc23          	sd	t3,24(t0)
    1360:	00733c23          	sd	t2,24(t1)
    1364:	00900513          	li	a0,9
    1368:	c99fe0ef          	jal	0 <evm_entry>
    136c:	00600513          	li	a0,6
    1370:	c91fe0ef          	jal	0 <evm_entry>
    1374:	00599313          	slli	t1,s3,0x5
    1378:	00690333          	add	t1,s2,t1
    137c:	1c000293          	li	t0,448
    1380:	00533023          	sd	t0,0(t1)
    1384:	00000293          	li	t0,0
    1388:	00533423          	sd	t0,8(t1)
    138c:	00000293          	li	t0,0
    1390:	00533823          	sd	t0,16(t1)
    1394:	00000293          	li	t0,0
    1398:	00533c23          	sd	t0,24(t1)
    139c:	00198993          	addi	s3,s3,1
    13a0:	00800513          	li	a0,8
    13a4:	c5dfe0ef          	jal	0 <evm_entry>
    13a8:	fff98993          	addi	s3,s3,-1
    13ac:	00599293          	slli	t0,s3,0x5
    13b0:	005902b3          	add	t0,s2,t0
    13b4:	0002b303          	ld	t1,0(t0)
    13b8:	00231313          	slli	t1,t1,0x2
    13bc:	00000397          	auipc	t2,0x0
    13c0:	00038393          	mv	t2,t2
    13c4:	006383b3          	add	t2,t2,t1
    13c8:	0003ae03          	lw	t3,0(t2) # 13bc <jumpdest_5+0x1e8>
    13cc:	000e0067          	jr	t3
    13d0:	00300513          	li	a0,3
    13d4:	c2dfe0ef          	jal	0 <evm_entry>

00000000000013d8 <jumpdest_6>:
    13d8:	00300513          	li	a0,3
    13dc:	c25fe0ef          	jal	0 <evm_entry>
    13e0:	00600513          	li	a0,6
    13e4:	c1dfe0ef          	jal	0 <evm_entry>
    13e8:	00600513          	li	a0,6
    13ec:	c15fe0ef          	jal	0 <evm_entry>
    13f0:	00599313          	slli	t1,s3,0x5
    13f4:	00690333          	add	t1,s2,t1
    13f8:	04000293          	li	t0,64
    13fc:	00533023          	sd	t0,0(t1)
    1400:	00000293          	li	t0,0
    1404:	00533423          	sd	t0,8(t1)
    1408:	00000293          	li	t0,0
    140c:	00533823          	sd	t0,16(t1)
    1410:	00000293          	li	t0,0
    1414:	00533c23          	sd	t0,24(t1)
    1418:	00198993          	addi	s3,s3,1
    141c:	00300513          	li	a0,3
    1420:	be1fe0ef          	jal	0 <evm_entry>
    1424:	fff98993          	addi	s3,s3,-1
    1428:	00599293          	slli	t0,s3,0x5
    142c:	005902b3          	add	t0,s2,t0
    1430:	0002b303          	ld	t1,0(t0)
    1434:	00830333          	add	t1,t1,s0
    1438:	00033383          	ld	t2,0(t1)
    143c:	00833e03          	ld	t3,8(t1)
    1440:	01033e83          	ld	t4,16(t1)
    1444:	01833f03          	ld	t5,24(t1)
    1448:	0072b023          	sd	t2,0(t0)
    144c:	01c2b423          	sd	t3,8(t0)
    1450:	01d2b823          	sd	t4,16(t0)
    1454:	01e2bc23          	sd	t5,24(t0)
    1458:	00198993          	addi	s3,s3,1
    145c:	00400513          	li	a0,4
    1460:	ba1fe0ef          	jal	0 <evm_entry>
    1464:	fff98293          	addi	t0,s3,-1
    1468:	00529293          	slli	t0,t0,0x5
    146c:	005902b3          	add	t0,s2,t0
    1470:	00599313          	slli	t1,s3,0x5
    1474:	00690333          	add	t1,s2,t1
    1478:	0002b383          	ld	t2,0(t0)
    147c:	0082be03          	ld	t3,8(t0)
    1480:	0102be83          	ld	t4,16(t0)
    1484:	0182bf03          	ld	t5,24(t0)
    1488:	00733023          	sd	t2,0(t1)
    148c:	01c33423          	sd	t3,8(t1)
    1490:	01d33823          	sd	t4,16(t1)
    1494:	01e33c23          	sd	t5,24(t1)
    1498:	00198993          	addi	s3,s3,1
    149c:	00500513          	li	a0,5
    14a0:	b61fe0ef          	jal	0 <evm_entry>
    14a4:	00300513          	li	a0,3
    14a8:	b59fe0ef          	jal	0 <evm_entry>
    14ac:	fff98293          	addi	t0,s3,-1
    14b0:	ffd98313          	addi	t1,s3,-3
    14b4:	00529293          	slli	t0,t0,0x5
    14b8:	00531313          	slli	t1,t1,0x5
    14bc:	005902b3          	add	t0,s2,t0
    14c0:	00690333          	add	t1,s2,t1
    14c4:	0002b383          	ld	t2,0(t0)
    14c8:	00033e03          	ld	t3,0(t1)
    14cc:	01c2b023          	sd	t3,0(t0)
    14d0:	00733023          	sd	t2,0(t1)
    14d4:	0082b383          	ld	t2,8(t0)
    14d8:	00833e03          	ld	t3,8(t1)
    14dc:	01c2b423          	sd	t3,8(t0)
    14e0:	00733423          	sd	t2,8(t1)
    14e4:	0102b383          	ld	t2,16(t0)
    14e8:	01033e03          	ld	t3,16(t1)
    14ec:	01c2b823          	sd	t3,16(t0)
    14f0:	00733823          	sd	t2,16(t1)
    14f4:	0182b383          	ld	t2,24(t0)
    14f8:	01833e03          	ld	t3,24(t1)
    14fc:	01c2bc23          	sd	t3,24(t0)
    1500:	00733c23          	sd	t2,24(t1)
    1504:	00300513          	li	a0,3
    1508:	af9fe0ef          	jal	0 <evm_entry>
    150c:	ffe98993          	addi	s3,s3,-2
    1510:	00599293          	slli	t0,s3,0x5
    1514:	005902b3          	add	t0,s2,t0
    1518:	0002b303          	ld	t1,0(t0)
    151c:	0082b383          	ld	t2,8(t0)
    1520:	0102be03          	ld	t3,16(t0)
    1524:	0182be83          	ld	t4,24(t0)
    1528:	0202bf03          	ld	t5,32(t0)
    152c:	0282bf83          	ld	t6,40(t0)
    1530:	0302b503          	ld	a0,48(t0)
    1534:	0382b583          	ld	a1,56(t0)
    1538:	406f0a33          	sub	s4,t5,t1
    153c:	006f3ab3          	sltu	s5,t5,t1
    1540:	407f8b33          	sub	s6,t6,t2
    1544:	415b0b33          	sub	s6,s6,s5
    1548:	007fbab3          	sltu	s5,t6,t2
    154c:	015b3633          	sltu	a2,s6,s5
    1550:	00caeab3          	or	s5,s5,a2
    1554:	41c50d33          	sub	s10,a0,t3
    1558:	415d0d33          	sub	s10,s10,s5
    155c:	01c53ab3          	sltu	s5,a0,t3
    1560:	015d3633          	sltu	a2,s10,s5
    1564:	00caeab3          	or	s5,s5,a2
    1568:	41d58db3          	sub	s11,a1,t4
    156c:	415d8db3          	sub	s11,s11,s5
    1570:	0142b023          	sd	s4,0(t0)
    1574:	0162b423          	sd	s6,8(t0)
    1578:	01a2b823          	sd	s10,16(t0)
    157c:	01b2bc23          	sd	s11,24(t0)
    1580:	00198993          	addi	s3,s3,1
    1584:	00400513          	li	a0,4
    1588:	a79fe0ef          	jal	0 <evm_entry>
    158c:	00300513          	li	a0,3
    1590:	a71fe0ef          	jal	0 <evm_entry>
    1594:	fff98293          	addi	t0,s3,-1
    1598:	ffe98313          	addi	t1,s3,-2
    159c:	00529293          	slli	t0,t0,0x5
    15a0:	00531313          	slli	t1,t1,0x5
    15a4:	005902b3          	add	t0,s2,t0
    15a8:	00690333          	add	t1,s2,t1
    15ac:	0002b383          	ld	t2,0(t0)
    15b0:	00033e03          	ld	t3,0(t1)
    15b4:	01c2b023          	sd	t3,0(t0)
    15b8:	00733023          	sd	t2,0(t1)
    15bc:	0082b383          	ld	t2,8(t0)
    15c0:	00833e03          	ld	t3,8(t1)
    15c4:	01c2b423          	sd	t3,8(t0)
    15c8:	00733423          	sd	t2,8(t1)
    15cc:	0102b383          	ld	t2,16(t0)
    15d0:	01033e03          	ld	t3,16(t1)
    15d4:	01c2b823          	sd	t3,16(t0)
    15d8:	00733823          	sd	t2,16(t1)
    15dc:	0182b383          	ld	t2,24(t0)
    15e0:	01833e03          	ld	t3,24(t1)
    15e4:	01c2bc23          	sd	t3,24(t0)
    15e8:	00733c23          	sd	t2,24(t1)
    15ec:	00a00513          	li	a0,10
    15f0:	a11fe0ef          	jal	0 <evm_entry>
    15f4:	ffe98993          	addi	s3,s3,-2
    15f8:	00599293          	slli	t0,s3,0x5
    15fc:	005902b3          	add	t0,s2,t0
    1600:	0002b503          	ld	a0,0(t0)
    1604:	0082b583          	ld	a1,8(t0)
    1608:	00850533          	add	a0,a0,s0
    160c:	9f5fe0ef          	jal	0 <evm_entry>
    1610:	00300513          	li	a0,3
    1614:	9edfe0ef          	jal	0 <evm_entry>

0000000000001618 <jumpdest_7>:
    1618:	00300513          	li	a0,3
    161c:	9e5fe0ef          	jal	0 <evm_entry>
    1620:	00900513          	li	a0,9
    1624:	9ddfe0ef          	jal	0 <evm_entry>
    1628:	00600513          	li	a0,6
    162c:	9d5fe0ef          	jal	0 <evm_entry>
    1630:	00599313          	slli	t1,s3,0x5
    1634:	00690333          	add	t1,s2,t1
    1638:	09800293          	li	t0,152
    163c:	00533023          	sd	t0,0(t1)
    1640:	00000293          	li	t0,0
    1644:	00533423          	sd	t0,8(t1)
    1648:	00000293          	li	t0,0
    164c:	00533823          	sd	t0,16(t1)
    1650:	00000293          	li	t0,0
    1654:	00533c23          	sd	t0,24(t1)
    1658:	00198993          	addi	s3,s3,1
    165c:	00600513          	li	a0,6
    1660:	9a1fe0ef          	jal	0 <evm_entry>
    1664:	00600513          	li	a0,6
    1668:	999fe0ef          	jal	0 <evm_entry>
    166c:	00599313          	slli	t1,s3,0x5
    1670:	00690333          	add	t1,s2,t1
    1674:	00400293          	li	t0,4
    1678:	00533023          	sd	t0,0(t1)
    167c:	00000293          	li	t0,0
    1680:	00533423          	sd	t0,8(t1)
    1684:	00000293          	li	t0,0
    1688:	00533823          	sd	t0,16(t1)
    168c:	00000293          	li	t0,0
    1690:	00533c23          	sd	t0,24(t1)
    1694:	00198993          	addi	s3,s3,1
    1698:	00400513          	li	a0,4
    169c:	965fe0ef          	jal	0 <evm_entry>
    16a0:	fff98293          	addi	t0,s3,-1
    16a4:	00529293          	slli	t0,t0,0x5
    16a8:	005902b3          	add	t0,s2,t0
    16ac:	00599313          	slli	t1,s3,0x5
    16b0:	00690333          	add	t1,s2,t1
    16b4:	0002b383          	ld	t2,0(t0)
    16b8:	0082be03          	ld	t3,8(t0)
    16bc:	0102be83          	ld	t4,16(t0)
    16c0:	0182bf03          	ld	t5,24(t0)
    16c4:	00733023          	sd	t2,0(t1)
    16c8:	01c33423          	sd	t3,8(t1)
    16cc:	01d33823          	sd	t4,16(t1)
    16d0:	01e33c23          	sd	t5,24(t1)
    16d4:	00198993          	addi	s3,s3,1
    16d8:	00300513          	li	a0,3
    16dc:	925fe0ef          	jal	0 <evm_entry>
    16e0:	00198993          	addi	s3,s3,1
    16e4:	00300513          	li	a0,3
    16e8:	919fe0ef          	jal	0 <evm_entry>
    16ec:	ffe98993          	addi	s3,s3,-2
    16f0:	00599293          	slli	t0,s3,0x5
    16f4:	005902b3          	add	t0,s2,t0
    16f8:	0002b303          	ld	t1,0(t0)
    16fc:	0082b383          	ld	t2,8(t0)
    1700:	0102be03          	ld	t3,16(t0)
    1704:	0182be83          	ld	t4,24(t0)
    1708:	0202bf03          	ld	t5,32(t0)
    170c:	0282bf83          	ld	t6,40(t0)
    1710:	0302b503          	ld	a0,48(t0)
    1714:	0382b583          	ld	a1,56(t0)
    1718:	406f0a33          	sub	s4,t5,t1
    171c:	006f3ab3          	sltu	s5,t5,t1
    1720:	407f8b33          	sub	s6,t6,t2
    1724:	415b0b33          	sub	s6,s6,s5
    1728:	007fbab3          	sltu	s5,t6,t2
    172c:	015b3633          	sltu	a2,s6,s5
    1730:	00caeab3          	or	s5,s5,a2
    1734:	41c50d33          	sub	s10,a0,t3
    1738:	415d0d33          	sub	s10,s10,s5
    173c:	01c53ab3          	sltu	s5,a0,t3
    1740:	015d3633          	sltu	a2,s10,s5
    1744:	00caeab3          	or	s5,s5,a2
    1748:	41d58db3          	sub	s11,a1,t4
    174c:	415d8db3          	sub	s11,s11,s5
    1750:	0142b023          	sd	s4,0(t0)
    1754:	0162b423          	sd	s6,8(t0)
    1758:	01a2b823          	sd	s10,16(t0)
    175c:	01b2bc23          	sd	s11,24(t0)
    1760:	00198993          	addi	s3,s3,1
    1764:	00500513          	li	a0,5
    1768:	899fe0ef          	jal	0 <evm_entry>
    176c:	ffe98293          	addi	t0,s3,-2
    1770:	00529293          	slli	t0,t0,0x5
    1774:	005902b3          	add	t0,s2,t0
    1778:	00599313          	slli	t1,s3,0x5
    177c:	00690333          	add	t1,s2,t1
    1780:	0002b383          	ld	t2,0(t0)
    1784:	0082be03          	ld	t3,8(t0)
    1788:	0102be83          	ld	t4,16(t0)
    178c:	0182bf03          	ld	t5,24(t0)
    1790:	00733023          	sd	t2,0(t1)
    1794:	01c33423          	sd	t3,8(t1)
    1798:	01d33823          	sd	t4,16(t1)
    179c:	01e33c23          	sd	t5,24(t1)
    17a0:	00198993          	addi	s3,s3,1
    17a4:	00300513          	li	a0,3
    17a8:	859fe0ef          	jal	0 <evm_entry>
    17ac:	ffe98993          	addi	s3,s3,-2
    17b0:	00599293          	slli	t0,s3,0x5
    17b4:	005902b3          	add	t0,s2,t0
    17b8:	0002b303          	ld	t1,0(t0)
    17bc:	0082b383          	ld	t2,8(t0)
    17c0:	0102be03          	ld	t3,16(t0)
    17c4:	0182be83          	ld	t4,24(t0)
    17c8:	0202bf03          	ld	t5,32(t0)
    17cc:	0282bf83          	ld	t6,40(t0)
    17d0:	0302b503          	ld	a0,48(t0)
    17d4:	0382b583          	ld	a1,56(t0)
    17d8:	01e30a33          	add	s4,t1,t5
    17dc:	006a3ab3          	sltu	s5,s4,t1
    17e0:	01f38b33          	add	s6,t2,t6
    17e4:	015b0b33          	add	s6,s6,s5
    17e8:	007b3ab3          	sltu	s5,s6,t2
    17ec:	00ae0d33          	add	s10,t3,a0
    17f0:	015d0d33          	add	s10,s10,s5
    17f4:	01cd3ab3          	sltu	s5,s10,t3
    17f8:	00be8db3          	add	s11,t4,a1
    17fc:	015d8db3          	add	s11,s11,s5
    1800:	0142b023          	sd	s4,0(t0)
    1804:	0162b423          	sd	s6,8(t0)
    1808:	01a2b823          	sd	s10,16(t0)
    180c:	01b2bc23          	sd	s11,24(t0)
    1810:	00198993          	addi	s3,s3,1
    1814:	00400513          	li	a0,4
    1818:	fe8fe0ef          	jal	0 <evm_entry>
    181c:	00300513          	li	a0,3
    1820:	fe0fe0ef          	jal	0 <evm_entry>
    1824:	fff98293          	addi	t0,s3,-1
    1828:	ffe98313          	addi	t1,s3,-2
    182c:	00529293          	slli	t0,t0,0x5
    1830:	00531313          	slli	t1,t1,0x5
    1834:	005902b3          	add	t0,s2,t0
    1838:	00690333          	add	t1,s2,t1
    183c:	0002b383          	ld	t2,0(t0)
    1840:	00033e03          	ld	t3,0(t1)
    1844:	01c2b023          	sd	t3,0(t0)
    1848:	00733023          	sd	t2,0(t1)
    184c:	0082b383          	ld	t2,8(t0)
    1850:	00833e03          	ld	t3,8(t1)
    1854:	01c2b423          	sd	t3,8(t0)
    1858:	00733423          	sd	t2,8(t1)
    185c:	0102b383          	ld	t2,16(t0)
    1860:	01033e03          	ld	t3,16(t1)
    1864:	01c2b823          	sd	t3,16(t0)
    1868:	00733823          	sd	t2,16(t1)
    186c:	0182b383          	ld	t2,24(t0)
    1870:	01833e03          	ld	t3,24(t1)
    1874:	01c2bc23          	sd	t3,24(t0)
    1878:	00733c23          	sd	t2,24(t1)
    187c:	00900513          	li	a0,9
    1880:	f80fe0ef          	jal	0 <evm_entry>
    1884:	00600513          	li	a0,6
    1888:	f78fe0ef          	jal	0 <evm_entry>
    188c:	00599313          	slli	t1,s3,0x5
    1890:	00690333          	add	t1,s2,t1
    1894:	09300293          	li	t0,147
    1898:	00533023          	sd	t0,0(t1)
    189c:	00000293          	li	t0,0
    18a0:	00533423          	sd	t0,8(t1)
    18a4:	00000293          	li	t0,0
    18a8:	00533823          	sd	t0,16(t1)
    18ac:	00000293          	li	t0,0
    18b0:	00533c23          	sd	t0,24(t1)
    18b4:	00198993          	addi	s3,s3,1
    18b8:	00500513          	li	a0,5
    18bc:	f44fe0ef          	jal	0 <evm_entry>
    18c0:	00300513          	li	a0,3
    18c4:	f3cfe0ef          	jal	0 <evm_entry>
    18c8:	fff98293          	addi	t0,s3,-1
    18cc:	ffd98313          	addi	t1,s3,-3
    18d0:	00529293          	slli	t0,t0,0x5
    18d4:	00531313          	slli	t1,t1,0x5
    18d8:	005902b3          	add	t0,s2,t0
    18dc:	00690333          	add	t1,s2,t1
    18e0:	0002b383          	ld	t2,0(t0)
    18e4:	00033e03          	ld	t3,0(t1)
    18e8:	01c2b023          	sd	t3,0(t0)
    18ec:	00733023          	sd	t2,0(t1)
    18f0:	0082b383          	ld	t2,8(t0)
    18f4:	00833e03          	ld	t3,8(t1)
    18f8:	01c2b423          	sd	t3,8(t0)
    18fc:	00733423          	sd	t2,8(t1)
    1900:	0102b383          	ld	t2,16(t0)
    1904:	01033e03          	ld	t3,16(t1)
    1908:	01c2b823          	sd	t3,16(t0)
    190c:	00733823          	sd	t2,16(t1)
    1910:	0182b383          	ld	t2,24(t0)
    1914:	01833e03          	ld	t3,24(t1)
    1918:	01c2bc23          	sd	t3,24(t0)
    191c:	00733c23          	sd	t2,24(t1)
    1920:	00400513          	li	a0,4
    1924:	edcfe0ef          	jal	0 <evm_entry>
    1928:	00300513          	li	a0,3
    192c:	ed4fe0ef          	jal	0 <evm_entry>
    1930:	fff98293          	addi	t0,s3,-1
    1934:	ffe98313          	addi	t1,s3,-2
    1938:	00529293          	slli	t0,t0,0x5
    193c:	00531313          	slli	t1,t1,0x5
    1940:	005902b3          	add	t0,s2,t0
    1944:	00690333          	add	t1,s2,t1
    1948:	0002b383          	ld	t2,0(t0)
    194c:	00033e03          	ld	t3,0(t1)
    1950:	01c2b023          	sd	t3,0(t0)
    1954:	00733023          	sd	t2,0(t1)
    1958:	0082b383          	ld	t2,8(t0)
    195c:	00833e03          	ld	t3,8(t1)
    1960:	01c2b423          	sd	t3,8(t0)
    1964:	00733423          	sd	t2,8(t1)
    1968:	0102b383          	ld	t2,16(t0)
    196c:	01033e03          	ld	t3,16(t1)
    1970:	01c2b823          	sd	t3,16(t0)
    1974:	00733823          	sd	t2,16(t1)
    1978:	0182b383          	ld	t2,24(t0)
    197c:	01833e03          	ld	t3,24(t1)
    1980:	01c2bc23          	sd	t3,24(t0)
    1984:	00733c23          	sd	t2,24(t1)
    1988:	00900513          	li	a0,9
    198c:	e74fe0ef          	jal	0 <evm_entry>
    1990:	00600513          	li	a0,6
    1994:	e6cfe0ef          	jal	0 <evm_entry>
    1998:	00599313          	slli	t1,s3,0x5
    199c:	00690333          	add	t1,s2,t1
    19a0:	18600293          	li	t0,390
    19a4:	00533023          	sd	t0,0(t1)
    19a8:	00000293          	li	t0,0
    19ac:	00533423          	sd	t0,8(t1)
    19b0:	00000293          	li	t0,0
    19b4:	00533823          	sd	t0,16(t1)
    19b8:	00000293          	li	t0,0
    19bc:	00533c23          	sd	t0,24(t1)
    19c0:	00198993          	addi	s3,s3,1
    19c4:	00800513          	li	a0,8
    19c8:	e38fe0ef          	jal	0 <evm_entry>
    19cc:	fff98993          	addi	s3,s3,-1
    19d0:	00599293          	slli	t0,s3,0x5
    19d4:	005902b3          	add	t0,s2,t0
    19d8:	0002b303          	ld	t1,0(t0)
    19dc:	00231313          	slli	t1,t1,0x2
    19e0:	00000397          	auipc	t2,0x0
    19e4:	00038393          	mv	t2,t2
    19e8:	006383b3          	add	t2,t2,t1
    19ec:	0003ae03          	lw	t3,0(t2) # 19e0 <jumpdest_7+0x3c8>
    19f0:	000e0067          	jr	t3
    19f4:	00300513          	li	a0,3
    19f8:	e08fe0ef          	jal	0 <evm_entry>

00000000000019fc <jumpdest_8>:
    19fc:	00300513          	li	a0,3
    1a00:	e00fe0ef          	jal	0 <evm_entry>
    1a04:	00900513          	li	a0,9
    1a08:	df8fe0ef          	jal	0 <evm_entry>
    1a0c:	00600513          	li	a0,6
    1a10:	df0fe0ef          	jal	0 <evm_entry>
    1a14:	00599313          	slli	t1,s3,0x5
    1a18:	00690333          	add	t1,s2,t1
    1a1c:	11600293          	li	t0,278
    1a20:	00533023          	sd	t0,0(t1)
    1a24:	00000293          	li	t0,0
    1a28:	00533423          	sd	t0,8(t1)
    1a2c:	00000293          	li	t0,0
    1a30:	00533823          	sd	t0,16(t1)
    1a34:	00000293          	li	t0,0
    1a38:	00533c23          	sd	t0,24(t1)
    1a3c:	00198993          	addi	s3,s3,1
    1a40:	00800513          	li	a0,8
    1a44:	dbcfe0ef          	jal	0 <evm_entry>
    1a48:	fff98993          	addi	s3,s3,-1
    1a4c:	00599293          	slli	t0,s3,0x5
    1a50:	005902b3          	add	t0,s2,t0
    1a54:	0002b303          	ld	t1,0(t0)
    1a58:	00231313          	slli	t1,t1,0x2
    1a5c:	00000397          	auipc	t2,0x0
    1a60:	00038393          	mv	t2,t2
    1a64:	006383b3          	add	t2,t2,t1
    1a68:	0003ae03          	lw	t3,0(t2) # 1a5c <jumpdest_8+0x60>
    1a6c:	000e0067          	jr	t3
    1a70:	00300513          	li	a0,3
    1a74:	d8cfe0ef          	jal	0 <evm_entry>

0000000000001a78 <jumpdest_9>:
    1a78:	00300513          	li	a0,3
    1a7c:	d84fe0ef          	jal	0 <evm_entry>
    1a80:	00600513          	li	a0,6
    1a84:	d7cfe0ef          	jal	0 <evm_entry>
    1a88:	00600513          	li	a0,6
    1a8c:	d74fe0ef          	jal	0 <evm_entry>
    1a90:	00599313          	slli	t1,s3,0x5
    1a94:	00690333          	add	t1,s2,t1
    1a98:	04000293          	li	t0,64
    1a9c:	00533023          	sd	t0,0(t1)
    1aa0:	00000293          	li	t0,0
    1aa4:	00533423          	sd	t0,8(t1)
    1aa8:	00000293          	li	t0,0
    1aac:	00533823          	sd	t0,16(t1)
    1ab0:	00000293          	li	t0,0
    1ab4:	00533c23          	sd	t0,24(t1)
    1ab8:	00198993          	addi	s3,s3,1
    1abc:	00300513          	li	a0,3
    1ac0:	d40fe0ef          	jal	0 <evm_entry>
    1ac4:	fff98993          	addi	s3,s3,-1
    1ac8:	00599293          	slli	t0,s3,0x5
    1acc:	005902b3          	add	t0,s2,t0
    1ad0:	0002b303          	ld	t1,0(t0)
    1ad4:	00830333          	add	t1,t1,s0
    1ad8:	00033383          	ld	t2,0(t1)
    1adc:	00833e03          	ld	t3,8(t1)
    1ae0:	01033e83          	ld	t4,16(t1)
    1ae4:	01833f03          	ld	t5,24(t1)
    1ae8:	0072b023          	sd	t2,0(t0)
    1aec:	01c2b423          	sd	t3,8(t0)
    1af0:	01d2b823          	sd	t4,16(t0)
    1af4:	01e2bc23          	sd	t5,24(t0)
    1af8:	00198993          	addi	s3,s3,1
    1afc:	00900513          	li	a0,9
    1b00:	d00fe0ef          	jal	0 <evm_entry>
    1b04:	00600513          	li	a0,6
    1b08:	cf8fe0ef          	jal	0 <evm_entry>
    1b0c:	00599313          	slli	t1,s3,0x5
    1b10:	00690333          	add	t1,s2,t1
    1b14:	0a500293          	li	t0,165
    1b18:	00533023          	sd	t0,0(t1)
    1b1c:	00000293          	li	t0,0
    1b20:	00533423          	sd	t0,8(t1)
    1b24:	00000293          	li	t0,0
    1b28:	00533823          	sd	t0,16(t1)
    1b2c:	00000293          	li	t0,0
    1b30:	00533c23          	sd	t0,24(t1)
    1b34:	00198993          	addi	s3,s3,1
    1b38:	00500513          	li	a0,5
    1b3c:	cc4fe0ef          	jal	0 <evm_entry>
    1b40:	00300513          	li	a0,3
    1b44:	cbcfe0ef          	jal	0 <evm_entry>
    1b48:	fff98293          	addi	t0,s3,-1
    1b4c:	ffd98313          	addi	t1,s3,-3
    1b50:	00529293          	slli	t0,t0,0x5
    1b54:	00531313          	slli	t1,t1,0x5
    1b58:	005902b3          	add	t0,s2,t0
    1b5c:	00690333          	add	t1,s2,t1
    1b60:	0002b383          	ld	t2,0(t0)
    1b64:	00033e03          	ld	t3,0(t1)
    1b68:	01c2b023          	sd	t3,0(t0)
    1b6c:	00733023          	sd	t2,0(t1)
    1b70:	0082b383          	ld	t2,8(t0)
    1b74:	00833e03          	ld	t3,8(t1)
    1b78:	01c2b423          	sd	t3,8(t0)
    1b7c:	00733423          	sd	t2,8(t1)
    1b80:	0102b383          	ld	t2,16(t0)
    1b84:	01033e03          	ld	t3,16(t1)
    1b88:	01c2b823          	sd	t3,16(t0)
    1b8c:	00733823          	sd	t2,16(t1)
    1b90:	0182b383          	ld	t2,24(t0)
    1b94:	01833e03          	ld	t3,24(t1)
    1b98:	01c2bc23          	sd	t3,24(t0)
    1b9c:	00733c23          	sd	t2,24(t1)
    1ba0:	00400513          	li	a0,4
    1ba4:	c5cfe0ef          	jal	0 <evm_entry>
    1ba8:	00300513          	li	a0,3
    1bac:	c54fe0ef          	jal	0 <evm_entry>
    1bb0:	fff98293          	addi	t0,s3,-1
    1bb4:	ffe98313          	addi	t1,s3,-2
    1bb8:	00529293          	slli	t0,t0,0x5
    1bbc:	00531313          	slli	t1,t1,0x5
    1bc0:	005902b3          	add	t0,s2,t0
    1bc4:	00690333          	add	t1,s2,t1
    1bc8:	0002b383          	ld	t2,0(t0)
    1bcc:	00033e03          	ld	t3,0(t1)
    1bd0:	01c2b023          	sd	t3,0(t0)
    1bd4:	00733023          	sd	t2,0(t1)
    1bd8:	0082b383          	ld	t2,8(t0)
    1bdc:	00833e03          	ld	t3,8(t1)
    1be0:	01c2b423          	sd	t3,8(t0)
    1be4:	00733423          	sd	t2,8(t1)
    1be8:	0102b383          	ld	t2,16(t0)
    1bec:	01033e03          	ld	t3,16(t1)
    1bf0:	01c2b823          	sd	t3,16(t0)
    1bf4:	00733823          	sd	t2,16(t1)
    1bf8:	0182b383          	ld	t2,24(t0)
    1bfc:	01833e03          	ld	t3,24(t1)
    1c00:	01c2bc23          	sd	t3,24(t0)
    1c04:	00733c23          	sd	t2,24(t1)
    1c08:	00900513          	li	a0,9
    1c0c:	bf4fe0ef          	jal	0 <evm_entry>
    1c10:	00600513          	li	a0,6
    1c14:	becfe0ef          	jal	0 <evm_entry>
    1c18:	00599313          	slli	t1,s3,0x5
    1c1c:	00690333          	add	t1,s2,t1
    1c20:	1c000293          	li	t0,448
    1c24:	00533023          	sd	t0,0(t1)
    1c28:	00000293          	li	t0,0
    1c2c:	00533423          	sd	t0,8(t1)
    1c30:	00000293          	li	t0,0
    1c34:	00533823          	sd	t0,16(t1)
    1c38:	00000293          	li	t0,0
    1c3c:	00533c23          	sd	t0,24(t1)
    1c40:	00198993          	addi	s3,s3,1
    1c44:	00800513          	li	a0,8
    1c48:	bb8fe0ef          	jal	0 <evm_entry>
    1c4c:	fff98993          	addi	s3,s3,-1
    1c50:	00599293          	slli	t0,s3,0x5
    1c54:	005902b3          	add	t0,s2,t0
    1c58:	0002b303          	ld	t1,0(t0)
    1c5c:	00231313          	slli	t1,t1,0x2
    1c60:	00000397          	auipc	t2,0x0
    1c64:	00038393          	mv	t2,t2
    1c68:	006383b3          	add	t2,t2,t1
    1c6c:	0003ae03          	lw	t3,0(t2) # 1c60 <jumpdest_9+0x1e8>
    1c70:	000e0067          	jr	t3
    1c74:	00300513          	li	a0,3
    1c78:	b88fe0ef          	jal	0 <evm_entry>

0000000000001c7c <jumpdest_10>:
    1c7c:	00300513          	li	a0,3
    1c80:	b80fe0ef          	jal	0 <evm_entry>
    1c84:	00600513          	li	a0,6
    1c88:	b78fe0ef          	jal	0 <evm_entry>
    1c8c:	00600513          	li	a0,6
    1c90:	b70fe0ef          	jal	0 <evm_entry>
    1c94:	00599313          	slli	t1,s3,0x5
    1c98:	00690333          	add	t1,s2,t1
    1c9c:	04000293          	li	t0,64
    1ca0:	00533023          	sd	t0,0(t1)
    1ca4:	00000293          	li	t0,0
    1ca8:	00533423          	sd	t0,8(t1)
    1cac:	00000293          	li	t0,0
    1cb0:	00533823          	sd	t0,16(t1)
    1cb4:	00000293          	li	t0,0
    1cb8:	00533c23          	sd	t0,24(t1)
    1cbc:	00198993          	addi	s3,s3,1
    1cc0:	00300513          	li	a0,3
    1cc4:	b3cfe0ef          	jal	0 <evm_entry>
    1cc8:	fff98993          	addi	s3,s3,-1
    1ccc:	00599293          	slli	t0,s3,0x5
    1cd0:	005902b3          	add	t0,s2,t0
    1cd4:	0002b303          	ld	t1,0(t0)
    1cd8:	00830333          	add	t1,t1,s0
    1cdc:	00033383          	ld	t2,0(t1)
    1ce0:	00833e03          	ld	t3,8(t1)
    1ce4:	01033e83          	ld	t4,16(t1)
    1ce8:	01833f03          	ld	t5,24(t1)
    1cec:	0072b023          	sd	t2,0(t0)
    1cf0:	01c2b423          	sd	t3,8(t0)
    1cf4:	01d2b823          	sd	t4,16(t0)
    1cf8:	01e2bc23          	sd	t5,24(t0)
    1cfc:	00198993          	addi	s3,s3,1
    1d00:	00400513          	li	a0,4
    1d04:	afcfe0ef          	jal	0 <evm_entry>
    1d08:	fff98293          	addi	t0,s3,-1
    1d0c:	00529293          	slli	t0,t0,0x5
    1d10:	005902b3          	add	t0,s2,t0
    1d14:	00599313          	slli	t1,s3,0x5
    1d18:	00690333          	add	t1,s2,t1
    1d1c:	0002b383          	ld	t2,0(t0)
    1d20:	0082be03          	ld	t3,8(t0)
    1d24:	0102be83          	ld	t4,16(t0)
    1d28:	0182bf03          	ld	t5,24(t0)
    1d2c:	00733023          	sd	t2,0(t1)
    1d30:	01c33423          	sd	t3,8(t1)
    1d34:	01d33823          	sd	t4,16(t1)
    1d38:	01e33c23          	sd	t5,24(t1)
    1d3c:	00198993          	addi	s3,s3,1
    1d40:	00500513          	li	a0,5
    1d44:	abcfe0ef          	jal	0 <evm_entry>
    1d48:	00300513          	li	a0,3
    1d4c:	ab4fe0ef          	jal	0 <evm_entry>
    1d50:	fff98293          	addi	t0,s3,-1
    1d54:	ffd98313          	addi	t1,s3,-3
    1d58:	00529293          	slli	t0,t0,0x5
    1d5c:	00531313          	slli	t1,t1,0x5
    1d60:	005902b3          	add	t0,s2,t0
    1d64:	00690333          	add	t1,s2,t1
    1d68:	0002b383          	ld	t2,0(t0)
    1d6c:	00033e03          	ld	t3,0(t1)
    1d70:	01c2b023          	sd	t3,0(t0)
    1d74:	00733023          	sd	t2,0(t1)
    1d78:	0082b383          	ld	t2,8(t0)
    1d7c:	00833e03          	ld	t3,8(t1)
    1d80:	01c2b423          	sd	t3,8(t0)
    1d84:	00733423          	sd	t2,8(t1)
    1d88:	0102b383          	ld	t2,16(t0)
    1d8c:	01033e03          	ld	t3,16(t1)
    1d90:	01c2b823          	sd	t3,16(t0)
    1d94:	00733823          	sd	t2,16(t1)
    1d98:	0182b383          	ld	t2,24(t0)
    1d9c:	01833e03          	ld	t3,24(t1)
    1da0:	01c2bc23          	sd	t3,24(t0)
    1da4:	00733c23          	sd	t2,24(t1)
    1da8:	00300513          	li	a0,3
    1dac:	a54fe0ef          	jal	0 <evm_entry>
    1db0:	ffe98993          	addi	s3,s3,-2
    1db4:	00599293          	slli	t0,s3,0x5
    1db8:	005902b3          	add	t0,s2,t0
    1dbc:	0002b303          	ld	t1,0(t0)
    1dc0:	0082b383          	ld	t2,8(t0)
    1dc4:	0102be03          	ld	t3,16(t0)
    1dc8:	0182be83          	ld	t4,24(t0)
    1dcc:	0202bf03          	ld	t5,32(t0)
    1dd0:	0282bf83          	ld	t6,40(t0)
    1dd4:	0302b503          	ld	a0,48(t0)
    1dd8:	0382b583          	ld	a1,56(t0)
    1ddc:	406f0a33          	sub	s4,t5,t1
    1de0:	006f3ab3          	sltu	s5,t5,t1
    1de4:	407f8b33          	sub	s6,t6,t2
    1de8:	415b0b33          	sub	s6,s6,s5
    1dec:	007fbab3          	sltu	s5,t6,t2
    1df0:	015b3633          	sltu	a2,s6,s5
    1df4:	00caeab3          	or	s5,s5,a2
    1df8:	41c50d33          	sub	s10,a0,t3
    1dfc:	415d0d33          	sub	s10,s10,s5
    1e00:	01c53ab3          	sltu	s5,a0,t3
    1e04:	015d3633          	sltu	a2,s10,s5
    1e08:	00caeab3          	or	s5,s5,a2
    1e0c:	41d58db3          	sub	s11,a1,t4
    1e10:	415d8db3          	sub	s11,s11,s5
    1e14:	0142b023          	sd	s4,0(t0)
    1e18:	0162b423          	sd	s6,8(t0)
    1e1c:	01a2b823          	sd	s10,16(t0)
    1e20:	01b2bc23          	sd	s11,24(t0)
    1e24:	00198993          	addi	s3,s3,1
    1e28:	00400513          	li	a0,4
    1e2c:	9d4fe0ef          	jal	0 <evm_entry>
    1e30:	00300513          	li	a0,3
    1e34:	9ccfe0ef          	jal	0 <evm_entry>
    1e38:	fff98293          	addi	t0,s3,-1
    1e3c:	ffe98313          	addi	t1,s3,-2
    1e40:	00529293          	slli	t0,t0,0x5
    1e44:	00531313          	slli	t1,t1,0x5
    1e48:	005902b3          	add	t0,s2,t0
    1e4c:	00690333          	add	t1,s2,t1
    1e50:	0002b383          	ld	t2,0(t0)
    1e54:	00033e03          	ld	t3,0(t1)
    1e58:	01c2b023          	sd	t3,0(t0)
    1e5c:	00733023          	sd	t2,0(t1)
    1e60:	0082b383          	ld	t2,8(t0)
    1e64:	00833e03          	ld	t3,8(t1)
    1e68:	01c2b423          	sd	t3,8(t0)
    1e6c:	00733423          	sd	t2,8(t1)
    1e70:	0102b383          	ld	t2,16(t0)
    1e74:	01033e03          	ld	t3,16(t1)
    1e78:	01c2b823          	sd	t3,16(t0)
    1e7c:	00733823          	sd	t2,16(t1)
    1e80:	0182b383          	ld	t2,24(t0)
    1e84:	01833e03          	ld	t3,24(t1)
    1e88:	01c2bc23          	sd	t3,24(t0)
    1e8c:	00733c23          	sd	t2,24(t1)
    1e90:	00a00513          	li	a0,10
    1e94:	96cfe0ef          	jal	0 <evm_entry>
    1e98:	ffe98993          	addi	s3,s3,-2
    1e9c:	00599293          	slli	t0,s3,0x5
    1ea0:	005902b3          	add	t0,s2,t0
    1ea4:	0002b503          	ld	a0,0(t0)
    1ea8:	0082b583          	ld	a1,8(t0)
    1eac:	00850533          	add	a0,a0,s0
    1eb0:	950fe0ef          	jal	0 <evm_entry>
    1eb4:	00300513          	li	a0,3
    1eb8:	948fe0ef          	jal	0 <evm_entry>

0000000000001ebc <jumpdest_11>:
    1ebc:	00300513          	li	a0,3
    1ec0:	940fe0ef          	jal	0 <evm_entry>
    1ec4:	00900513          	li	a0,9
    1ec8:	938fe0ef          	jal	0 <evm_entry>
    1ecc:	00600513          	li	a0,6
    1ed0:	930fe0ef          	jal	0 <evm_entry>
    1ed4:	00599313          	slli	t1,s3,0x5
    1ed8:	00690333          	add	t1,s2,t1
    1edc:	0c800293          	li	t0,200
    1ee0:	00533023          	sd	t0,0(t1)
    1ee4:	00000293          	li	t0,0
    1ee8:	00533423          	sd	t0,8(t1)
    1eec:	00000293          	li	t0,0
    1ef0:	00533823          	sd	t0,16(t1)
    1ef4:	00000293          	li	t0,0
    1ef8:	00533c23          	sd	t0,24(t1)
    1efc:	00198993          	addi	s3,s3,1
    1f00:	00600513          	li	a0,6
    1f04:	8fcfe0ef          	jal	0 <evm_entry>
    1f08:	00600513          	li	a0,6
    1f0c:	8f4fe0ef          	jal	0 <evm_entry>
    1f10:	00599313          	slli	t1,s3,0x5
    1f14:	00690333          	add	t1,s2,t1
    1f18:	00400293          	li	t0,4
    1f1c:	00533023          	sd	t0,0(t1)
    1f20:	00000293          	li	t0,0
    1f24:	00533423          	sd	t0,8(t1)
    1f28:	00000293          	li	t0,0
    1f2c:	00533823          	sd	t0,16(t1)
    1f30:	00000293          	li	t0,0
    1f34:	00533c23          	sd	t0,24(t1)
    1f38:	00198993          	addi	s3,s3,1
    1f3c:	00400513          	li	a0,4
    1f40:	8c0fe0ef          	jal	0 <evm_entry>
    1f44:	fff98293          	addi	t0,s3,-1
    1f48:	00529293          	slli	t0,t0,0x5
    1f4c:	005902b3          	add	t0,s2,t0
    1f50:	00599313          	slli	t1,s3,0x5
    1f54:	00690333          	add	t1,s2,t1
    1f58:	0002b383          	ld	t2,0(t0)
    1f5c:	0082be03          	ld	t3,8(t0)
    1f60:	0102be83          	ld	t4,16(t0)
    1f64:	0182bf03          	ld	t5,24(t0)
    1f68:	00733023          	sd	t2,0(t1)
    1f6c:	01c33423          	sd	t3,8(t1)
    1f70:	01d33823          	sd	t4,16(t1)
    1f74:	01e33c23          	sd	t5,24(t1)
    1f78:	00198993          	addi	s3,s3,1
    1f7c:	00300513          	li	a0,3
    1f80:	880fe0ef          	jal	0 <evm_entry>
    1f84:	00198993          	addi	s3,s3,1
    1f88:	00300513          	li	a0,3
    1f8c:	874fe0ef          	jal	0 <evm_entry>
    1f90:	ffe98993          	addi	s3,s3,-2
    1f94:	00599293          	slli	t0,s3,0x5
    1f98:	005902b3          	add	t0,s2,t0
    1f9c:	0002b303          	ld	t1,0(t0)
    1fa0:	0082b383          	ld	t2,8(t0)
    1fa4:	0102be03          	ld	t3,16(t0)
    1fa8:	0182be83          	ld	t4,24(t0)
    1fac:	0202bf03          	ld	t5,32(t0)
    1fb0:	0282bf83          	ld	t6,40(t0)
    1fb4:	0302b503          	ld	a0,48(t0)
    1fb8:	0382b583          	ld	a1,56(t0)
    1fbc:	406f0a33          	sub	s4,t5,t1
    1fc0:	006f3ab3          	sltu	s5,t5,t1
    1fc4:	407f8b33          	sub	s6,t6,t2
    1fc8:	415b0b33          	sub	s6,s6,s5
    1fcc:	007fbab3          	sltu	s5,t6,t2
    1fd0:	015b3633          	sltu	a2,s6,s5
    1fd4:	00caeab3          	or	s5,s5,a2
    1fd8:	41c50d33          	sub	s10,a0,t3
    1fdc:	415d0d33          	sub	s10,s10,s5
    1fe0:	01c53ab3          	sltu	s5,a0,t3
    1fe4:	015d3633          	sltu	a2,s10,s5
    1fe8:	00caeab3          	or	s5,s5,a2
    1fec:	41d58db3          	sub	s11,a1,t4
    1ff0:	415d8db3          	sub	s11,s11,s5
    1ff4:	0142b023          	sd	s4,0(t0)
    1ff8:	0162b423          	sd	s6,8(t0)
    1ffc:	01a2b823          	sd	s10,16(t0)
    2000:	01b2bc23          	sd	s11,24(t0)
    2004:	00198993          	addi	s3,s3,1
    2008:	00500513          	li	a0,5
    200c:	ff5fd0ef          	jal	0 <evm_entry>
    2010:	ffe98293          	addi	t0,s3,-2
    2014:	00529293          	slli	t0,t0,0x5
    2018:	005902b3          	add	t0,s2,t0
    201c:	00599313          	slli	t1,s3,0x5
    2020:	00690333          	add	t1,s2,t1
    2024:	0002b383          	ld	t2,0(t0)
    2028:	0082be03          	ld	t3,8(t0)
    202c:	0102be83          	ld	t4,16(t0)
    2030:	0182bf03          	ld	t5,24(t0)
    2034:	00733023          	sd	t2,0(t1)
    2038:	01c33423          	sd	t3,8(t1)
    203c:	01d33823          	sd	t4,16(t1)
    2040:	01e33c23          	sd	t5,24(t1)
    2044:	00198993          	addi	s3,s3,1
    2048:	00300513          	li	a0,3
    204c:	fb5fd0ef          	jal	0 <evm_entry>
    2050:	ffe98993          	addi	s3,s3,-2
    2054:	00599293          	slli	t0,s3,0x5
    2058:	005902b3          	add	t0,s2,t0
    205c:	0002b303          	ld	t1,0(t0)
    2060:	0082b383          	ld	t2,8(t0)
    2064:	0102be03          	ld	t3,16(t0)
    2068:	0182be83          	ld	t4,24(t0)
    206c:	0202bf03          	ld	t5,32(t0)
    2070:	0282bf83          	ld	t6,40(t0)
    2074:	0302b503          	ld	a0,48(t0)
    2078:	0382b583          	ld	a1,56(t0)
    207c:	01e30a33          	add	s4,t1,t5
    2080:	006a3ab3          	sltu	s5,s4,t1
    2084:	01f38b33          	add	s6,t2,t6
    2088:	015b0b33          	add	s6,s6,s5
    208c:	007b3ab3          	sltu	s5,s6,t2
    2090:	00ae0d33          	add	s10,t3,a0
    2094:	015d0d33          	add	s10,s10,s5
    2098:	01cd3ab3          	sltu	s5,s10,t3
    209c:	00be8db3          	add	s11,t4,a1
    20a0:	015d8db3          	add	s11,s11,s5
    20a4:	0142b023          	sd	s4,0(t0)
    20a8:	0162b423          	sd	s6,8(t0)
    20ac:	01a2b823          	sd	s10,16(t0)
    20b0:	01b2bc23          	sd	s11,24(t0)
    20b4:	00198993          	addi	s3,s3,1
    20b8:	00400513          	li	a0,4
    20bc:	f45fd0ef          	jal	0 <evm_entry>
    20c0:	00300513          	li	a0,3
    20c4:	f3dfd0ef          	jal	0 <evm_entry>
    20c8:	fff98293          	addi	t0,s3,-1
    20cc:	ffe98313          	addi	t1,s3,-2
    20d0:	00529293          	slli	t0,t0,0x5
    20d4:	00531313          	slli	t1,t1,0x5
    20d8:	005902b3          	add	t0,s2,t0
    20dc:	00690333          	add	t1,s2,t1
    20e0:	0002b383          	ld	t2,0(t0)
    20e4:	00033e03          	ld	t3,0(t1)
    20e8:	01c2b023          	sd	t3,0(t0)
    20ec:	00733023          	sd	t2,0(t1)
    20f0:	0082b383          	ld	t2,8(t0)
    20f4:	00833e03          	ld	t3,8(t1)
    20f8:	01c2b423          	sd	t3,8(t0)
    20fc:	00733423          	sd	t2,8(t1)
    2100:	0102b383          	ld	t2,16(t0)
    2104:	01033e03          	ld	t3,16(t1)
    2108:	01c2b823          	sd	t3,16(t0)
    210c:	00733823          	sd	t2,16(t1)
    2110:	0182b383          	ld	t2,24(t0)
    2114:	01833e03          	ld	t3,24(t1)
    2118:	01c2bc23          	sd	t3,24(t0)
    211c:	00733c23          	sd	t2,24(t1)
    2120:	00900513          	li	a0,9
    2124:	eddfd0ef          	jal	0 <evm_entry>
    2128:	00600513          	li	a0,6
    212c:	ed5fd0ef          	jal	0 <evm_entry>
    2130:	00599313          	slli	t1,s3,0x5
    2134:	00690333          	add	t1,s2,t1
    2138:	0c300293          	li	t0,195
    213c:	00533023          	sd	t0,0(t1)
    2140:	00000293          	li	t0,0
    2144:	00533423          	sd	t0,8(t1)
    2148:	00000293          	li	t0,0
    214c:	00533823          	sd	t0,16(t1)
    2150:	00000293          	li	t0,0
    2154:	00533c23          	sd	t0,24(t1)
    2158:	00198993          	addi	s3,s3,1
    215c:	00500513          	li	a0,5
    2160:	ea1fd0ef          	jal	0 <evm_entry>
    2164:	00300513          	li	a0,3
    2168:	e99fd0ef          	jal	0 <evm_entry>
    216c:	fff98293          	addi	t0,s3,-1
    2170:	ffd98313          	addi	t1,s3,-3
    2174:	00529293          	slli	t0,t0,0x5
    2178:	00531313          	slli	t1,t1,0x5
    217c:	005902b3          	add	t0,s2,t0
    2180:	00690333          	add	t1,s2,t1
    2184:	0002b383          	ld	t2,0(t0)
    2188:	00033e03          	ld	t3,0(t1)
    218c:	01c2b023          	sd	t3,0(t0)
    2190:	00733023          	sd	t2,0(t1)
    2194:	0082b383          	ld	t2,8(t0)
    2198:	00833e03          	ld	t3,8(t1)
    219c:	01c2b423          	sd	t3,8(t0)
    21a0:	00733423          	sd	t2,8(t1)
    21a4:	0102b383          	ld	t2,16(t0)
    21a8:	01033e03          	ld	t3,16(t1)
    21ac:	01c2b823          	sd	t3,16(t0)
    21b0:	00733823          	sd	t2,16(t1)
    21b4:	0182b383          	ld	t2,24(t0)
    21b8:	01833e03          	ld	t3,24(t1)
    21bc:	01c2bc23          	sd	t3,24(t0)
    21c0:	00733c23          	sd	t2,24(t1)
    21c4:	00400513          	li	a0,4
    21c8:	e39fd0ef          	jal	0 <evm_entry>
    21cc:	00300513          	li	a0,3
    21d0:	e31fd0ef          	jal	0 <evm_entry>
    21d4:	fff98293          	addi	t0,s3,-1
    21d8:	ffe98313          	addi	t1,s3,-2
    21dc:	00529293          	slli	t0,t0,0x5
    21e0:	00531313          	slli	t1,t1,0x5
    21e4:	005902b3          	add	t0,s2,t0
    21e8:	00690333          	add	t1,s2,t1
    21ec:	0002b383          	ld	t2,0(t0)
    21f0:	00033e03          	ld	t3,0(t1)
    21f4:	01c2b023          	sd	t3,0(t0)
    21f8:	00733023          	sd	t2,0(t1)
    21fc:	0082b383          	ld	t2,8(t0)
    2200:	00833e03          	ld	t3,8(t1)
    2204:	01c2b423          	sd	t3,8(t0)
    2208:	00733423          	sd	t2,8(t1)
    220c:	0102b383          	ld	t2,16(t0)
    2210:	01033e03          	ld	t3,16(t1)
    2214:	01c2b823          	sd	t3,16(t0)
    2218:	00733823          	sd	t2,16(t1)
    221c:	0182b383          	ld	t2,24(t0)
    2220:	01833e03          	ld	t3,24(t1)
    2224:	01c2bc23          	sd	t3,24(t0)
    2228:	00733c23          	sd	t2,24(t1)
    222c:	00900513          	li	a0,9
    2230:	dd1fd0ef          	jal	0 <evm_entry>
    2234:	00600513          	li	a0,6
    2238:	dc9fd0ef          	jal	0 <evm_entry>
    223c:	00599313          	slli	t1,s3,0x5
    2240:	00690333          	add	t1,s2,t1
    2244:	18600293          	li	t0,390
    2248:	00533023          	sd	t0,0(t1)
    224c:	00000293          	li	t0,0
    2250:	00533423          	sd	t0,8(t1)
    2254:	00000293          	li	t0,0
    2258:	00533823          	sd	t0,16(t1)
    225c:	00000293          	li	t0,0
    2260:	00533c23          	sd	t0,24(t1)
    2264:	00198993          	addi	s3,s3,1
    2268:	00800513          	li	a0,8
    226c:	d95fd0ef          	jal	0 <evm_entry>
    2270:	fff98993          	addi	s3,s3,-1
    2274:	00599293          	slli	t0,s3,0x5
    2278:	005902b3          	add	t0,s2,t0
    227c:	0002b303          	ld	t1,0(t0)
    2280:	00231313          	slli	t1,t1,0x2
    2284:	00000397          	auipc	t2,0x0
    2288:	00038393          	mv	t2,t2
    228c:	006383b3          	add	t2,t2,t1
    2290:	0003ae03          	lw	t3,0(t2) # 2284 <jumpdest_11+0x3c8>
    2294:	000e0067          	jr	t3
    2298:	00300513          	li	a0,3
    229c:	d65fd0ef          	jal	0 <evm_entry>

00000000000022a0 <jumpdest_12>:
    22a0:	00300513          	li	a0,3
    22a4:	d5dfd0ef          	jal	0 <evm_entry>
    22a8:	00900513          	li	a0,9
    22ac:	d55fd0ef          	jal	0 <evm_entry>
    22b0:	00600513          	li	a0,6
    22b4:	d4dfd0ef          	jal	0 <evm_entry>
    22b8:	00599313          	slli	t1,s3,0x5
    22bc:	00690333          	add	t1,s2,t1
    22c0:	13000293          	li	t0,304
    22c4:	00533023          	sd	t0,0(t1)
    22c8:	00000293          	li	t0,0
    22cc:	00533423          	sd	t0,8(t1)
    22d0:	00000293          	li	t0,0
    22d4:	00533823          	sd	t0,16(t1)
    22d8:	00000293          	li	t0,0
    22dc:	00533c23          	sd	t0,24(t1)
    22e0:	00198993          	addi	s3,s3,1
    22e4:	00800513          	li	a0,8
    22e8:	d19fd0ef          	jal	0 <evm_entry>
    22ec:	fff98993          	addi	s3,s3,-1
    22f0:	00599293          	slli	t0,s3,0x5
    22f4:	005902b3          	add	t0,s2,t0
    22f8:	0002b303          	ld	t1,0(t0)
    22fc:	00231313          	slli	t1,t1,0x2
    2300:	00000397          	auipc	t2,0x0
    2304:	00038393          	mv	t2,t2
    2308:	006383b3          	add	t2,t2,t1
    230c:	0003ae03          	lw	t3,0(t2) # 2300 <jumpdest_12+0x60>
    2310:	000e0067          	jr	t3
    2314:	00300513          	li	a0,3
    2318:	ce9fd0ef          	jal	0 <evm_entry>

000000000000231c <jumpdest_13>:
    231c:	00300513          	li	a0,3
    2320:	ce1fd0ef          	jal	0 <evm_entry>
    2324:	00600513          	li	a0,6
    2328:	cd9fd0ef          	jal	0 <evm_entry>
    232c:	00600513          	li	a0,6
    2330:	cd1fd0ef          	jal	0 <evm_entry>
    2334:	00599313          	slli	t1,s3,0x5
    2338:	00690333          	add	t1,s2,t1
    233c:	04000293          	li	t0,64
    2340:	00533023          	sd	t0,0(t1)
    2344:	00000293          	li	t0,0
    2348:	00533423          	sd	t0,8(t1)
    234c:	00000293          	li	t0,0
    2350:	00533823          	sd	t0,16(t1)
    2354:	00000293          	li	t0,0
    2358:	00533c23          	sd	t0,24(t1)
    235c:	00198993          	addi	s3,s3,1
    2360:	00300513          	li	a0,3
    2364:	c9dfd0ef          	jal	0 <evm_entry>
    2368:	fff98993          	addi	s3,s3,-1
    236c:	00599293          	slli	t0,s3,0x5
    2370:	005902b3          	add	t0,s2,t0
    2374:	0002b303          	ld	t1,0(t0)
    2378:	00830333          	add	t1,t1,s0
    237c:	00033383          	ld	t2,0(t1)
    2380:	00833e03          	ld	t3,8(t1)
    2384:	01033e83          	ld	t4,16(t1)
    2388:	01833f03          	ld	t5,24(t1)
    238c:	0072b023          	sd	t2,0(t0)
    2390:	01c2b423          	sd	t3,8(t0)
    2394:	01d2b823          	sd	t4,16(t0)
    2398:	01e2bc23          	sd	t5,24(t0)
    239c:	00198993          	addi	s3,s3,1
    23a0:	00900513          	li	a0,9
    23a4:	c5dfd0ef          	jal	0 <evm_entry>
    23a8:	00600513          	li	a0,6
    23ac:	c55fd0ef          	jal	0 <evm_entry>
    23b0:	00599313          	slli	t1,s3,0x5
    23b4:	00690333          	add	t1,s2,t1
    23b8:	0d500293          	li	t0,213
    23bc:	00533023          	sd	t0,0(t1)
    23c0:	00000293          	li	t0,0
    23c4:	00533423          	sd	t0,8(t1)
    23c8:	00000293          	li	t0,0
    23cc:	00533823          	sd	t0,16(t1)
    23d0:	00000293          	li	t0,0
    23d4:	00533c23          	sd	t0,24(t1)
    23d8:	00198993          	addi	s3,s3,1
    23dc:	00500513          	li	a0,5
    23e0:	c21fd0ef          	jal	0 <evm_entry>
    23e4:	00300513          	li	a0,3
    23e8:	c19fd0ef          	jal	0 <evm_entry>
    23ec:	fff98293          	addi	t0,s3,-1
    23f0:	ffd98313          	addi	t1,s3,-3
    23f4:	00529293          	slli	t0,t0,0x5
    23f8:	00531313          	slli	t1,t1,0x5
    23fc:	005902b3          	add	t0,s2,t0
    2400:	00690333          	add	t1,s2,t1
    2404:	0002b383          	ld	t2,0(t0)
    2408:	00033e03          	ld	t3,0(t1)
    240c:	01c2b023          	sd	t3,0(t0)
    2410:	00733023          	sd	t2,0(t1)
    2414:	0082b383          	ld	t2,8(t0)
    2418:	00833e03          	ld	t3,8(t1)
    241c:	01c2b423          	sd	t3,8(t0)
    2420:	00733423          	sd	t2,8(t1)
    2424:	0102b383          	ld	t2,16(t0)
    2428:	01033e03          	ld	t3,16(t1)
    242c:	01c2b823          	sd	t3,16(t0)
    2430:	00733823          	sd	t2,16(t1)
    2434:	0182b383          	ld	t2,24(t0)
    2438:	01833e03          	ld	t3,24(t1)
    243c:	01c2bc23          	sd	t3,24(t0)
    2440:	00733c23          	sd	t2,24(t1)
    2444:	00400513          	li	a0,4
    2448:	bb9fd0ef          	jal	0 <evm_entry>
    244c:	00300513          	li	a0,3
    2450:	bb1fd0ef          	jal	0 <evm_entry>
    2454:	fff98293          	addi	t0,s3,-1
    2458:	ffe98313          	addi	t1,s3,-2
    245c:	00529293          	slli	t0,t0,0x5
    2460:	00531313          	slli	t1,t1,0x5
    2464:	005902b3          	add	t0,s2,t0
    2468:	00690333          	add	t1,s2,t1
    246c:	0002b383          	ld	t2,0(t0)
    2470:	00033e03          	ld	t3,0(t1)
    2474:	01c2b023          	sd	t3,0(t0)
    2478:	00733023          	sd	t2,0(t1)
    247c:	0082b383          	ld	t2,8(t0)
    2480:	00833e03          	ld	t3,8(t1)
    2484:	01c2b423          	sd	t3,8(t0)
    2488:	00733423          	sd	t2,8(t1)
    248c:	0102b383          	ld	t2,16(t0)
    2490:	01033e03          	ld	t3,16(t1)
    2494:	01c2b823          	sd	t3,16(t0)
    2498:	00733823          	sd	t2,16(t1)
    249c:	0182b383          	ld	t2,24(t0)
    24a0:	01833e03          	ld	t3,24(t1)
    24a4:	01c2bc23          	sd	t3,24(t0)
    24a8:	00733c23          	sd	t2,24(t1)
    24ac:	00900513          	li	a0,9
    24b0:	b51fd0ef          	jal	0 <evm_entry>
    24b4:	00600513          	li	a0,6
    24b8:	b49fd0ef          	jal	0 <evm_entry>
    24bc:	00599313          	slli	t1,s3,0x5
    24c0:	00690333          	add	t1,s2,t1
    24c4:	1c000293          	li	t0,448
    24c8:	00533023          	sd	t0,0(t1)
    24cc:	00000293          	li	t0,0
    24d0:	00533423          	sd	t0,8(t1)
    24d4:	00000293          	li	t0,0
    24d8:	00533823          	sd	t0,16(t1)
    24dc:	00000293          	li	t0,0
    24e0:	00533c23          	sd	t0,24(t1)
    24e4:	00198993          	addi	s3,s3,1
    24e8:	00800513          	li	a0,8
    24ec:	b15fd0ef          	jal	0 <evm_entry>
    24f0:	fff98993          	addi	s3,s3,-1
    24f4:	00599293          	slli	t0,s3,0x5
    24f8:	005902b3          	add	t0,s2,t0
    24fc:	0002b303          	ld	t1,0(t0)
    2500:	00231313          	slli	t1,t1,0x2
    2504:	00000397          	auipc	t2,0x0
    2508:	00038393          	mv	t2,t2
    250c:	006383b3          	add	t2,t2,t1
    2510:	0003ae03          	lw	t3,0(t2) # 2504 <jumpdest_13+0x1e8>
    2514:	000e0067          	jr	t3
    2518:	00300513          	li	a0,3
    251c:	ae5fd0ef          	jal	0 <evm_entry>

0000000000002520 <jumpdest_14>:
    2520:	00300513          	li	a0,3
    2524:	addfd0ef          	jal	0 <evm_entry>
    2528:	00600513          	li	a0,6
    252c:	ad5fd0ef          	jal	0 <evm_entry>
    2530:	00600513          	li	a0,6
    2534:	acdfd0ef          	jal	0 <evm_entry>
    2538:	00599313          	slli	t1,s3,0x5
    253c:	00690333          	add	t1,s2,t1
    2540:	04000293          	li	t0,64
    2544:	00533023          	sd	t0,0(t1)
    2548:	00000293          	li	t0,0
    254c:	00533423          	sd	t0,8(t1)
    2550:	00000293          	li	t0,0
    2554:	00533823          	sd	t0,16(t1)
    2558:	00000293          	li	t0,0
    255c:	00533c23          	sd	t0,24(t1)
    2560:	00198993          	addi	s3,s3,1
    2564:	00300513          	li	a0,3
    2568:	a99fd0ef          	jal	0 <evm_entry>
    256c:	fff98993          	addi	s3,s3,-1
    2570:	00599293          	slli	t0,s3,0x5
    2574:	005902b3          	add	t0,s2,t0
    2578:	0002b303          	ld	t1,0(t0)
    257c:	00830333          	add	t1,t1,s0
    2580:	00033383          	ld	t2,0(t1)
    2584:	00833e03          	ld	t3,8(t1)
    2588:	01033e83          	ld	t4,16(t1)
    258c:	01833f03          	ld	t5,24(t1)
    2590:	0072b023          	sd	t2,0(t0)
    2594:	01c2b423          	sd	t3,8(t0)
    2598:	01d2b823          	sd	t4,16(t0)
    259c:	01e2bc23          	sd	t5,24(t0)
    25a0:	00198993          	addi	s3,s3,1
    25a4:	00400513          	li	a0,4
    25a8:	a59fd0ef          	jal	0 <evm_entry>
    25ac:	fff98293          	addi	t0,s3,-1
    25b0:	00529293          	slli	t0,t0,0x5
    25b4:	005902b3          	add	t0,s2,t0
    25b8:	00599313          	slli	t1,s3,0x5
    25bc:	00690333          	add	t1,s2,t1
    25c0:	0002b383          	ld	t2,0(t0)
    25c4:	0082be03          	ld	t3,8(t0)
    25c8:	0102be83          	ld	t4,16(t0)
    25cc:	0182bf03          	ld	t5,24(t0)
    25d0:	00733023          	sd	t2,0(t1)
    25d4:	01c33423          	sd	t3,8(t1)
    25d8:	01d33823          	sd	t4,16(t1)
    25dc:	01e33c23          	sd	t5,24(t1)
    25e0:	00198993          	addi	s3,s3,1
    25e4:	00500513          	li	a0,5
    25e8:	a19fd0ef          	jal	0 <evm_entry>
    25ec:	00300513          	li	a0,3
    25f0:	a11fd0ef          	jal	0 <evm_entry>
    25f4:	fff98293          	addi	t0,s3,-1
    25f8:	ffd98313          	addi	t1,s3,-3
    25fc:	00529293          	slli	t0,t0,0x5
    2600:	00531313          	slli	t1,t1,0x5
    2604:	005902b3          	add	t0,s2,t0
    2608:	00690333          	add	t1,s2,t1
    260c:	0002b383          	ld	t2,0(t0)
    2610:	00033e03          	ld	t3,0(t1)
    2614:	01c2b023          	sd	t3,0(t0)
    2618:	00733023          	sd	t2,0(t1)
    261c:	0082b383          	ld	t2,8(t0)
    2620:	00833e03          	ld	t3,8(t1)
    2624:	01c2b423          	sd	t3,8(t0)
    2628:	00733423          	sd	t2,8(t1)
    262c:	0102b383          	ld	t2,16(t0)
    2630:	01033e03          	ld	t3,16(t1)
    2634:	01c2b823          	sd	t3,16(t0)
    2638:	00733823          	sd	t2,16(t1)
    263c:	0182b383          	ld	t2,24(t0)
    2640:	01833e03          	ld	t3,24(t1)
    2644:	01c2bc23          	sd	t3,24(t0)
    2648:	00733c23          	sd	t2,24(t1)
    264c:	00300513          	li	a0,3
    2650:	9b1fd0ef          	jal	0 <evm_entry>
    2654:	ffe98993          	addi	s3,s3,-2
    2658:	00599293          	slli	t0,s3,0x5
    265c:	005902b3          	add	t0,s2,t0
    2660:	0002b303          	ld	t1,0(t0)
    2664:	0082b383          	ld	t2,8(t0)
    2668:	0102be03          	ld	t3,16(t0)
    266c:	0182be83          	ld	t4,24(t0)
    2670:	0202bf03          	ld	t5,32(t0)
    2674:	0282bf83          	ld	t6,40(t0)
    2678:	0302b503          	ld	a0,48(t0)
    267c:	0382b583          	ld	a1,56(t0)
    2680:	406f0a33          	sub	s4,t5,t1
    2684:	006f3ab3          	sltu	s5,t5,t1
    2688:	407f8b33          	sub	s6,t6,t2
    268c:	415b0b33          	sub	s6,s6,s5
    2690:	007fbab3          	sltu	s5,t6,t2
    2694:	015b3633          	sltu	a2,s6,s5
    2698:	00caeab3          	or	s5,s5,a2
    269c:	41c50d33          	sub	s10,a0,t3
    26a0:	415d0d33          	sub	s10,s10,s5
    26a4:	01c53ab3          	sltu	s5,a0,t3
    26a8:	015d3633          	sltu	a2,s10,s5
    26ac:	00caeab3          	or	s5,s5,a2
    26b0:	41d58db3          	sub	s11,a1,t4
    26b4:	415d8db3          	sub	s11,s11,s5
    26b8:	0142b023          	sd	s4,0(t0)
    26bc:	0162b423          	sd	s6,8(t0)
    26c0:	01a2b823          	sd	s10,16(t0)
    26c4:	01b2bc23          	sd	s11,24(t0)
    26c8:	00198993          	addi	s3,s3,1
    26cc:	00400513          	li	a0,4
    26d0:	931fd0ef          	jal	0 <evm_entry>
    26d4:	00300513          	li	a0,3
    26d8:	929fd0ef          	jal	0 <evm_entry>
    26dc:	fff98293          	addi	t0,s3,-1
    26e0:	ffe98313          	addi	t1,s3,-2
    26e4:	00529293          	slli	t0,t0,0x5
    26e8:	00531313          	slli	t1,t1,0x5
    26ec:	005902b3          	add	t0,s2,t0
    26f0:	00690333          	add	t1,s2,t1
    26f4:	0002b383          	ld	t2,0(t0)
    26f8:	00033e03          	ld	t3,0(t1)
    26fc:	01c2b023          	sd	t3,0(t0)
    2700:	00733023          	sd	t2,0(t1)
    2704:	0082b383          	ld	t2,8(t0)
    2708:	00833e03          	ld	t3,8(t1)
    270c:	01c2b423          	sd	t3,8(t0)
    2710:	00733423          	sd	t2,8(t1)
    2714:	0102b383          	ld	t2,16(t0)
    2718:	01033e03          	ld	t3,16(t1)
    271c:	01c2b823          	sd	t3,16(t0)
    2720:	00733823          	sd	t2,16(t1)
    2724:	0182b383          	ld	t2,24(t0)
    2728:	01833e03          	ld	t3,24(t1)
    272c:	01c2bc23          	sd	t3,24(t0)
    2730:	00733c23          	sd	t2,24(t1)
    2734:	00a00513          	li	a0,10
    2738:	8c9fd0ef          	jal	0 <evm_entry>
    273c:	ffe98993          	addi	s3,s3,-2
    2740:	00599293          	slli	t0,s3,0x5
    2744:	005902b3          	add	t0,s2,t0
    2748:	0002b503          	ld	a0,0(t0)
    274c:	0082b583          	ld	a1,8(t0)
    2750:	00850533          	add	a0,a0,s0
    2754:	8adfd0ef          	jal	0 <evm_entry>
    2758:	00300513          	li	a0,3
    275c:	8a5fd0ef          	jal	0 <evm_entry>

0000000000002760 <jumpdest_15>:
    2760:	00300513          	li	a0,3
    2764:	89dfd0ef          	jal	0 <evm_entry>
    2768:	00900513          	li	a0,9
    276c:	895fd0ef          	jal	0 <evm_entry>
    2770:	00600513          	li	a0,6
    2774:	88dfd0ef          	jal	0 <evm_entry>
    2778:	00599313          	slli	t1,s3,0x5
    277c:	00690333          	add	t1,s2,t1
    2780:	0e600293          	li	t0,230
    2784:	00533023          	sd	t0,0(t1)
    2788:	00000293          	li	t0,0
    278c:	00533423          	sd	t0,8(t1)
    2790:	00000293          	li	t0,0
    2794:	00533823          	sd	t0,16(t1)
    2798:	00000293          	li	t0,0
    279c:	00533c23          	sd	t0,24(t1)
    27a0:	00198993          	addi	s3,s3,1
    27a4:	00900513          	li	a0,9
    27a8:	859fd0ef          	jal	0 <evm_entry>
    27ac:	00600513          	li	a0,6
    27b0:	851fd0ef          	jal	0 <evm_entry>
    27b4:	00599313          	slli	t1,s3,0x5
    27b8:	00690333          	add	t1,s2,t1
    27bc:	14a00293          	li	t0,330
    27c0:	00533023          	sd	t0,0(t1)
    27c4:	00000293          	li	t0,0
    27c8:	00533423          	sd	t0,8(t1)
    27cc:	00000293          	li	t0,0
    27d0:	00533823          	sd	t0,16(t1)
    27d4:	00000293          	li	t0,0
    27d8:	00533c23          	sd	t0,24(t1)
    27dc:	00198993          	addi	s3,s3,1
    27e0:	00800513          	li	a0,8
    27e4:	81dfd0ef          	jal	0 <evm_entry>
    27e8:	fff98993          	addi	s3,s3,-1
    27ec:	00599293          	slli	t0,s3,0x5
    27f0:	005902b3          	add	t0,s2,t0
    27f4:	0002b303          	ld	t1,0(t0)
    27f8:	00231313          	slli	t1,t1,0x2
    27fc:	00000397          	auipc	t2,0x0
    2800:	00038393          	mv	t2,t2
    2804:	006383b3          	add	t2,t2,t1
    2808:	0003ae03          	lw	t3,0(t2) # 27fc <jumpdest_15+0x9c>
    280c:	000e0067          	jr	t3
    2810:	00300513          	li	a0,3
    2814:	fecfd0ef          	jal	0 <evm_entry>

0000000000002818 <jumpdest_16>:
    2818:	00300513          	li	a0,3
    281c:	fe4fd0ef          	jal	0 <evm_entry>
    2820:	00600513          	li	a0,6
    2824:	fdcfd0ef          	jal	0 <evm_entry>
    2828:	00600513          	li	a0,6
    282c:	fd4fd0ef          	jal	0 <evm_entry>
    2830:	00599313          	slli	t1,s3,0x5
    2834:	00690333          	add	t1,s2,t1
    2838:	04000293          	li	t0,64
    283c:	00533023          	sd	t0,0(t1)
    2840:	00000293          	li	t0,0
    2844:	00533423          	sd	t0,8(t1)
    2848:	00000293          	li	t0,0
    284c:	00533823          	sd	t0,16(t1)
    2850:	00000293          	li	t0,0
    2854:	00533c23          	sd	t0,24(t1)
    2858:	00198993          	addi	s3,s3,1
    285c:	00300513          	li	a0,3
    2860:	fa0fd0ef          	jal	0 <evm_entry>
    2864:	fff98993          	addi	s3,s3,-1
    2868:	00599293          	slli	t0,s3,0x5
    286c:	005902b3          	add	t0,s2,t0
    2870:	0002b303          	ld	t1,0(t0)
    2874:	00830333          	add	t1,t1,s0
    2878:	00033383          	ld	t2,0(t1)
    287c:	00833e03          	ld	t3,8(t1)
    2880:	01033e83          	ld	t4,16(t1)
    2884:	01833f03          	ld	t5,24(t1)
    2888:	0072b023          	sd	t2,0(t0)
    288c:	01c2b423          	sd	t3,8(t0)
    2890:	01d2b823          	sd	t4,16(t0)
    2894:	01e2bc23          	sd	t5,24(t0)
    2898:	00198993          	addi	s3,s3,1
    289c:	00900513          	li	a0,9
    28a0:	f60fd0ef          	jal	0 <evm_entry>
    28a4:	00600513          	li	a0,6
    28a8:	f58fd0ef          	jal	0 <evm_entry>
    28ac:	00599313          	slli	t1,s3,0x5
    28b0:	00690333          	add	t1,s2,t1
    28b4:	0f300293          	li	t0,243
    28b8:	00533023          	sd	t0,0(t1)
    28bc:	00000293          	li	t0,0
    28c0:	00533423          	sd	t0,8(t1)
    28c4:	00000293          	li	t0,0
    28c8:	00533823          	sd	t0,16(t1)
    28cc:	00000293          	li	t0,0
    28d0:	00533c23          	sd	t0,24(t1)
    28d4:	00198993          	addi	s3,s3,1
    28d8:	00500513          	li	a0,5
    28dc:	f24fd0ef          	jal	0 <evm_entry>
    28e0:	00300513          	li	a0,3
    28e4:	f1cfd0ef          	jal	0 <evm_entry>
    28e8:	fff98293          	addi	t0,s3,-1
    28ec:	ffd98313          	addi	t1,s3,-3
    28f0:	00529293          	slli	t0,t0,0x5
    28f4:	00531313          	slli	t1,t1,0x5
    28f8:	005902b3          	add	t0,s2,t0
    28fc:	00690333          	add	t1,s2,t1
    2900:	0002b383          	ld	t2,0(t0)
    2904:	00033e03          	ld	t3,0(t1)
    2908:	01c2b023          	sd	t3,0(t0)
    290c:	00733023          	sd	t2,0(t1)
    2910:	0082b383          	ld	t2,8(t0)
    2914:	00833e03          	ld	t3,8(t1)
    2918:	01c2b423          	sd	t3,8(t0)
    291c:	00733423          	sd	t2,8(t1)
    2920:	0102b383          	ld	t2,16(t0)
    2924:	01033e03          	ld	t3,16(t1)
    2928:	01c2b823          	sd	t3,16(t0)
    292c:	00733823          	sd	t2,16(t1)
    2930:	0182b383          	ld	t2,24(t0)
    2934:	01833e03          	ld	t3,24(t1)
    2938:	01c2bc23          	sd	t3,24(t0)
    293c:	00733c23          	sd	t2,24(t1)
    2940:	00400513          	li	a0,4
    2944:	ebcfd0ef          	jal	0 <evm_entry>
    2948:	00300513          	li	a0,3
    294c:	eb4fd0ef          	jal	0 <evm_entry>
    2950:	fff98293          	addi	t0,s3,-1
    2954:	ffe98313          	addi	t1,s3,-2
    2958:	00529293          	slli	t0,t0,0x5
    295c:	00531313          	slli	t1,t1,0x5
    2960:	005902b3          	add	t0,s2,t0
    2964:	00690333          	add	t1,s2,t1
    2968:	0002b383          	ld	t2,0(t0)
    296c:	00033e03          	ld	t3,0(t1)
    2970:	01c2b023          	sd	t3,0(t0)
    2974:	00733023          	sd	t2,0(t1)
    2978:	0082b383          	ld	t2,8(t0)
    297c:	00833e03          	ld	t3,8(t1)
    2980:	01c2b423          	sd	t3,8(t0)
    2984:	00733423          	sd	t2,8(t1)
    2988:	0102b383          	ld	t2,16(t0)
    298c:	01033e03          	ld	t3,16(t1)
    2990:	01c2b823          	sd	t3,16(t0)
    2994:	00733823          	sd	t2,16(t1)
    2998:	0182b383          	ld	t2,24(t0)
    299c:	01833e03          	ld	t3,24(t1)
    29a0:	01c2bc23          	sd	t3,24(t0)
    29a4:	00733c23          	sd	t2,24(t1)
    29a8:	00900513          	li	a0,9
    29ac:	e54fd0ef          	jal	0 <evm_entry>
    29b0:	00600513          	li	a0,6
    29b4:	e4cfd0ef          	jal	0 <evm_entry>
    29b8:	00599313          	slli	t1,s3,0x5
    29bc:	00690333          	add	t1,s2,t1
    29c0:	1c000293          	li	t0,448
    29c4:	00533023          	sd	t0,0(t1)
    29c8:	00000293          	li	t0,0
    29cc:	00533423          	sd	t0,8(t1)
    29d0:	00000293          	li	t0,0
    29d4:	00533823          	sd	t0,16(t1)
    29d8:	00000293          	li	t0,0
    29dc:	00533c23          	sd	t0,24(t1)
    29e0:	00198993          	addi	s3,s3,1
    29e4:	00800513          	li	a0,8
    29e8:	e18fd0ef          	jal	0 <evm_entry>
    29ec:	fff98993          	addi	s3,s3,-1
    29f0:	00599293          	slli	t0,s3,0x5
    29f4:	005902b3          	add	t0,s2,t0
    29f8:	0002b303          	ld	t1,0(t0)
    29fc:	00231313          	slli	t1,t1,0x2
    2a00:	00000397          	auipc	t2,0x0
    2a04:	00038393          	mv	t2,t2
    2a08:	006383b3          	add	t2,t2,t1
    2a0c:	0003ae03          	lw	t3,0(t2) # 2a00 <jumpdest_16+0x1e8>
    2a10:	000e0067          	jr	t3
    2a14:	00300513          	li	a0,3
    2a18:	de8fd0ef          	jal	0 <evm_entry>

0000000000002a1c <jumpdest_17>:
    2a1c:	00300513          	li	a0,3
    2a20:	de0fd0ef          	jal	0 <evm_entry>
    2a24:	00600513          	li	a0,6
    2a28:	dd8fd0ef          	jal	0 <evm_entry>
    2a2c:	00600513          	li	a0,6
    2a30:	dd0fd0ef          	jal	0 <evm_entry>
    2a34:	00599313          	slli	t1,s3,0x5
    2a38:	00690333          	add	t1,s2,t1
    2a3c:	04000293          	li	t0,64
    2a40:	00533023          	sd	t0,0(t1)
    2a44:	00000293          	li	t0,0
    2a48:	00533423          	sd	t0,8(t1)
    2a4c:	00000293          	li	t0,0
    2a50:	00533823          	sd	t0,16(t1)
    2a54:	00000293          	li	t0,0
    2a58:	00533c23          	sd	t0,24(t1)
    2a5c:	00198993          	addi	s3,s3,1
    2a60:	00300513          	li	a0,3
    2a64:	d9cfd0ef          	jal	0 <evm_entry>
    2a68:	fff98993          	addi	s3,s3,-1
    2a6c:	00599293          	slli	t0,s3,0x5
    2a70:	005902b3          	add	t0,s2,t0
    2a74:	0002b303          	ld	t1,0(t0)
    2a78:	00830333          	add	t1,t1,s0
    2a7c:	00033383          	ld	t2,0(t1)
    2a80:	00833e03          	ld	t3,8(t1)
    2a84:	01033e83          	ld	t4,16(t1)
    2a88:	01833f03          	ld	t5,24(t1)
    2a8c:	0072b023          	sd	t2,0(t0)
    2a90:	01c2b423          	sd	t3,8(t0)
    2a94:	01d2b823          	sd	t4,16(t0)
    2a98:	01e2bc23          	sd	t5,24(t0)
    2a9c:	00198993          	addi	s3,s3,1
    2aa0:	00400513          	li	a0,4
    2aa4:	d5cfd0ef          	jal	0 <evm_entry>
    2aa8:	fff98293          	addi	t0,s3,-1
    2aac:	00529293          	slli	t0,t0,0x5
    2ab0:	005902b3          	add	t0,s2,t0
    2ab4:	00599313          	slli	t1,s3,0x5
    2ab8:	00690333          	add	t1,s2,t1
    2abc:	0002b383          	ld	t2,0(t0)
    2ac0:	0082be03          	ld	t3,8(t0)
    2ac4:	0102be83          	ld	t4,16(t0)
    2ac8:	0182bf03          	ld	t5,24(t0)
    2acc:	00733023          	sd	t2,0(t1)
    2ad0:	01c33423          	sd	t3,8(t1)
    2ad4:	01d33823          	sd	t4,16(t1)
    2ad8:	01e33c23          	sd	t5,24(t1)
    2adc:	00198993          	addi	s3,s3,1
    2ae0:	00500513          	li	a0,5
    2ae4:	d1cfd0ef          	jal	0 <evm_entry>
    2ae8:	00300513          	li	a0,3
    2aec:	d14fd0ef          	jal	0 <evm_entry>
    2af0:	fff98293          	addi	t0,s3,-1
    2af4:	ffd98313          	addi	t1,s3,-3
    2af8:	00529293          	slli	t0,t0,0x5
    2afc:	00531313          	slli	t1,t1,0x5
    2b00:	005902b3          	add	t0,s2,t0
    2b04:	00690333          	add	t1,s2,t1
    2b08:	0002b383          	ld	t2,0(t0)
    2b0c:	00033e03          	ld	t3,0(t1)
    2b10:	01c2b023          	sd	t3,0(t0)
    2b14:	00733023          	sd	t2,0(t1)
    2b18:	0082b383          	ld	t2,8(t0)
    2b1c:	00833e03          	ld	t3,8(t1)
    2b20:	01c2b423          	sd	t3,8(t0)
    2b24:	00733423          	sd	t2,8(t1)
    2b28:	0102b383          	ld	t2,16(t0)
    2b2c:	01033e03          	ld	t3,16(t1)
    2b30:	01c2b823          	sd	t3,16(t0)
    2b34:	00733823          	sd	t2,16(t1)
    2b38:	0182b383          	ld	t2,24(t0)
    2b3c:	01833e03          	ld	t3,24(t1)
    2b40:	01c2bc23          	sd	t3,24(t0)
    2b44:	00733c23          	sd	t2,24(t1)
    2b48:	00300513          	li	a0,3
    2b4c:	cb4fd0ef          	jal	0 <evm_entry>
    2b50:	ffe98993          	addi	s3,s3,-2
    2b54:	00599293          	slli	t0,s3,0x5
    2b58:	005902b3          	add	t0,s2,t0
    2b5c:	0002b303          	ld	t1,0(t0)
    2b60:	0082b383          	ld	t2,8(t0)
    2b64:	0102be03          	ld	t3,16(t0)
    2b68:	0182be83          	ld	t4,24(t0)
    2b6c:	0202bf03          	ld	t5,32(t0)
    2b70:	0282bf83          	ld	t6,40(t0)
    2b74:	0302b503          	ld	a0,48(t0)
    2b78:	0382b583          	ld	a1,56(t0)
    2b7c:	406f0a33          	sub	s4,t5,t1
    2b80:	006f3ab3          	sltu	s5,t5,t1
    2b84:	407f8b33          	sub	s6,t6,t2
    2b88:	415b0b33          	sub	s6,s6,s5
    2b8c:	007fbab3          	sltu	s5,t6,t2
    2b90:	015b3633          	sltu	a2,s6,s5
    2b94:	00caeab3          	or	s5,s5,a2
    2b98:	41c50d33          	sub	s10,a0,t3
    2b9c:	415d0d33          	sub	s10,s10,s5
    2ba0:	01c53ab3          	sltu	s5,a0,t3
    2ba4:	015d3633          	sltu	a2,s10,s5
    2ba8:	00caeab3          	or	s5,s5,a2
    2bac:	41d58db3          	sub	s11,a1,t4
    2bb0:	415d8db3          	sub	s11,s11,s5
    2bb4:	0142b023          	sd	s4,0(t0)
    2bb8:	0162b423          	sd	s6,8(t0)
    2bbc:	01a2b823          	sd	s10,16(t0)
    2bc0:	01b2bc23          	sd	s11,24(t0)
    2bc4:	00198993          	addi	s3,s3,1
    2bc8:	00400513          	li	a0,4
    2bcc:	c34fd0ef          	jal	0 <evm_entry>
    2bd0:	00300513          	li	a0,3
    2bd4:	c2cfd0ef          	jal	0 <evm_entry>
    2bd8:	fff98293          	addi	t0,s3,-1
    2bdc:	ffe98313          	addi	t1,s3,-2
    2be0:	00529293          	slli	t0,t0,0x5
    2be4:	00531313          	slli	t1,t1,0x5
    2be8:	005902b3          	add	t0,s2,t0
    2bec:	00690333          	add	t1,s2,t1
    2bf0:	0002b383          	ld	t2,0(t0)
    2bf4:	00033e03          	ld	t3,0(t1)
    2bf8:	01c2b023          	sd	t3,0(t0)
    2bfc:	00733023          	sd	t2,0(t1)
    2c00:	0082b383          	ld	t2,8(t0)
    2c04:	00833e03          	ld	t3,8(t1)
    2c08:	01c2b423          	sd	t3,8(t0)
    2c0c:	00733423          	sd	t2,8(t1)
    2c10:	0102b383          	ld	t2,16(t0)
    2c14:	01033e03          	ld	t3,16(t1)
    2c18:	01c2b823          	sd	t3,16(t0)
    2c1c:	00733823          	sd	t2,16(t1)
    2c20:	0182b383          	ld	t2,24(t0)
    2c24:	01833e03          	ld	t3,24(t1)
    2c28:	01c2bc23          	sd	t3,24(t0)
    2c2c:	00733c23          	sd	t2,24(t1)
    2c30:	00a00513          	li	a0,10
    2c34:	bccfd0ef          	jal	0 <evm_entry>
    2c38:	ffe98993          	addi	s3,s3,-2
    2c3c:	00599293          	slli	t0,s3,0x5
    2c40:	005902b3          	add	t0,s2,t0
    2c44:	0002b503          	ld	a0,0(t0)
    2c48:	0082b583          	ld	a1,8(t0)
    2c4c:	00850533          	add	a0,a0,s0
    2c50:	bb0fd0ef          	jal	0 <evm_entry>
    2c54:	00300513          	li	a0,3
    2c58:	ba8fd0ef          	jal	0 <evm_entry>

0000000000002c5c <jumpdest_18>:
    2c5c:	00300513          	li	a0,3
    2c60:	ba0fd0ef          	jal	0 <evm_entry>
    2c64:	00300513          	li	a0,3
    2c68:	b98fd0ef          	jal	0 <evm_entry>
    2c6c:	00600513          	li	a0,6
    2c70:	b90fd0ef          	jal	0 <evm_entry>
    2c74:	00599313          	slli	t1,s3,0x5
    2c78:	00690333          	add	t1,s2,t1
    2c7c:	00000293          	li	t0,0
    2c80:	00533023          	sd	t0,0(t1)
    2c84:	00000293          	li	t0,0
    2c88:	00533423          	sd	t0,8(t1)
    2c8c:	00000293          	li	t0,0
    2c90:	00533823          	sd	t0,16(t1)
    2c94:	00000293          	li	t0,0
    2c98:	00533c23          	sd	t0,24(t1)
    2c9c:	00198993          	addi	s3,s3,1
    2ca0:	00400513          	li	a0,4
    2ca4:	b5cfd0ef          	jal	0 <evm_entry>
    2ca8:	fff98293          	addi	t0,s3,-1
    2cac:	00529293          	slli	t0,t0,0x5
    2cb0:	005902b3          	add	t0,s2,t0
    2cb4:	00599313          	slli	t1,s3,0x5
    2cb8:	00690333          	add	t1,s2,t1
    2cbc:	0002b383          	ld	t2,0(t0)
    2cc0:	0082be03          	ld	t3,8(t0)
    2cc4:	0102be83          	ld	t4,16(t0)
    2cc8:	0182bf03          	ld	t5,24(t0)
    2ccc:	00733023          	sd	t2,0(t1)
    2cd0:	01c33423          	sd	t3,8(t1)
    2cd4:	01d33823          	sd	t4,16(t1)
    2cd8:	01e33c23          	sd	t5,24(t1)
    2cdc:	00198993          	addi	s3,s3,1
    2ce0:	00600513          	li	a0,6
    2ce4:	b1cfd0ef          	jal	0 <evm_entry>
    2ce8:	ffd98293          	addi	t0,s3,-3
    2cec:	00529293          	slli	t0,t0,0x5
    2cf0:	005902b3          	add	t0,s2,t0
    2cf4:	00599313          	slli	t1,s3,0x5
    2cf8:	00690333          	add	t1,s2,t1
    2cfc:	0002b383          	ld	t2,0(t0)
    2d00:	0082be03          	ld	t3,8(t0)
    2d04:	0102be83          	ld	t4,16(t0)
    2d08:	0182bf03          	ld	t5,24(t0)
    2d0c:	00733023          	sd	t2,0(t1)
    2d10:	01c33423          	sd	t3,8(t1)
    2d14:	01d33823          	sd	t4,16(t1)
    2d18:	01e33c23          	sd	t5,24(t1)
    2d1c:	00198993          	addi	s3,s3,1
    2d20:	00300513          	li	a0,3
    2d24:	adcfd0ef          	jal	0 <evm_entry>
    2d28:	00600513          	li	a0,6
    2d2c:	ad4fd0ef          	jal	0 <evm_entry>
    2d30:	00599313          	slli	t1,s3,0x5
    2d34:	00690333          	add	t1,s2,t1
    2d38:	00000293          	li	t0,0
    2d3c:	00533023          	sd	t0,0(t1)
    2d40:	00000293          	li	t0,0
    2d44:	00533423          	sd	t0,8(t1)
    2d48:	00000293          	li	t0,0
    2d4c:	00533823          	sd	t0,16(t1)
    2d50:	00000293          	li	t0,0
    2d54:	00533c23          	sd	t0,24(t1)
    2d58:	00198993          	addi	s3,s3,1
    2d5c:	00300513          	li	a0,3
    2d60:	aa0fd0ef          	jal	0 <evm_entry>
    2d64:	00900513          	li	a0,9
    2d68:	a98fd0ef          	jal	0 <evm_entry>
    2d6c:	00600513          	li	a0,6
    2d70:	a90fd0ef          	jal	0 <evm_entry>
    2d74:	00599313          	slli	t1,s3,0x5
    2d78:	00690333          	add	t1,s2,t1
    2d7c:	10b00293          	li	t0,267
    2d80:	00533023          	sd	t0,0(t1)
    2d84:	00000293          	li	t0,0
    2d88:	00533423          	sd	t0,8(t1)
    2d8c:	00000293          	li	t0,0
    2d90:	00533823          	sd	t0,16(t1)
    2d94:	00000293          	li	t0,0
    2d98:	00533c23          	sd	t0,24(t1)
    2d9c:	00198993          	addi	s3,s3,1
    2da0:	00500513          	li	a0,5
    2da4:	a5cfd0ef          	jal	0 <evm_entry>
    2da8:	00300513          	li	a0,3
    2dac:	a54fd0ef          	jal	0 <evm_entry>
    2db0:	fff98293          	addi	t0,s3,-1
    2db4:	ffd98313          	addi	t1,s3,-3
    2db8:	00529293          	slli	t0,t0,0x5
    2dbc:	00531313          	slli	t1,t1,0x5
    2dc0:	005902b3          	add	t0,s2,t0
    2dc4:	00690333          	add	t1,s2,t1
    2dc8:	0002b383          	ld	t2,0(t0)
    2dcc:	00033e03          	ld	t3,0(t1)
    2dd0:	01c2b023          	sd	t3,0(t0)
    2dd4:	00733023          	sd	t2,0(t1)
    2dd8:	0082b383          	ld	t2,8(t0)
    2ddc:	00833e03          	ld	t3,8(t1)
    2de0:	01c2b423          	sd	t3,8(t0)
    2de4:	00733423          	sd	t2,8(t1)
    2de8:	0102b383          	ld	t2,16(t0)
    2dec:	01033e03          	ld	t3,16(t1)
    2df0:	01c2b823          	sd	t3,16(t0)
    2df4:	00733823          	sd	t2,16(t1)
    2df8:	0182b383          	ld	t2,24(t0)
    2dfc:	01833e03          	ld	t3,24(t1)
    2e00:	01c2bc23          	sd	t3,24(t0)
    2e04:	00733c23          	sd	t2,24(t1)
    2e08:	00400513          	li	a0,4
    2e0c:	9f4fd0ef          	jal	0 <evm_entry>
    2e10:	00300513          	li	a0,3
    2e14:	9ecfd0ef          	jal	0 <evm_entry>
    2e18:	fff98293          	addi	t0,s3,-1
    2e1c:	ffe98313          	addi	t1,s3,-2
    2e20:	00529293          	slli	t0,t0,0x5
    2e24:	00531313          	slli	t1,t1,0x5
    2e28:	005902b3          	add	t0,s2,t0
    2e2c:	00690333          	add	t1,s2,t1
    2e30:	0002b383          	ld	t2,0(t0)
    2e34:	00033e03          	ld	t3,0(t1)
    2e38:	01c2b023          	sd	t3,0(t0)
    2e3c:	00733023          	sd	t2,0(t1)
    2e40:	0082b383          	ld	t2,8(t0)
    2e44:	00833e03          	ld	t3,8(t1)
    2e48:	01c2b423          	sd	t3,8(t0)
    2e4c:	00733423          	sd	t2,8(t1)
    2e50:	0102b383          	ld	t2,16(t0)
    2e54:	01033e03          	ld	t3,16(t1)
    2e58:	01c2b823          	sd	t3,16(t0)
    2e5c:	00733823          	sd	t2,16(t1)
    2e60:	0182b383          	ld	t2,24(t0)
    2e64:	01833e03          	ld	t3,24(t1)
    2e68:	01c2bc23          	sd	t3,24(t0)
    2e6c:	00733c23          	sd	t2,24(t1)
    2e70:	00900513          	li	a0,9
    2e74:	98cfd0ef          	jal	0 <evm_entry>
    2e78:	00600513          	li	a0,6
    2e7c:	984fd0ef          	jal	0 <evm_entry>
    2e80:	00599313          	slli	t1,s3,0x5
    2e84:	00690333          	add	t1,s2,t1
    2e88:	20600293          	li	t0,518
    2e8c:	00533023          	sd	t0,0(t1)
    2e90:	00000293          	li	t0,0
    2e94:	00533423          	sd	t0,8(t1)
    2e98:	00000293          	li	t0,0
    2e9c:	00533823          	sd	t0,16(t1)
    2ea0:	00000293          	li	t0,0
    2ea4:	00533c23          	sd	t0,24(t1)
    2ea8:	00198993          	addi	s3,s3,1
    2eac:	00800513          	li	a0,8
    2eb0:	950fd0ef          	jal	0 <evm_entry>
    2eb4:	fff98993          	addi	s3,s3,-1
    2eb8:	00599293          	slli	t0,s3,0x5
    2ebc:	005902b3          	add	t0,s2,t0
    2ec0:	0002b303          	ld	t1,0(t0)
    2ec4:	00231313          	slli	t1,t1,0x2
    2ec8:	00000397          	auipc	t2,0x0
    2ecc:	00038393          	mv	t2,t2
    2ed0:	006383b3          	add	t2,t2,t1
    2ed4:	0003ae03          	lw	t3,0(t2) # 2ec8 <jumpdest_18+0x26c>
    2ed8:	000e0067          	jr	t3
    2edc:	00300513          	li	a0,3
    2ee0:	920fd0ef          	jal	0 <evm_entry>

0000000000002ee4 <jumpdest_19>:
    2ee4:	00300513          	li	a0,3
    2ee8:	918fd0ef          	jal	0 <evm_entry>
    2eec:	00400513          	li	a0,4
    2ef0:	910fd0ef          	jal	0 <evm_entry>
    2ef4:	00300513          	li	a0,3
    2ef8:	908fd0ef          	jal	0 <evm_entry>
    2efc:	fff98293          	addi	t0,s3,-1
    2f00:	ffe98313          	addi	t1,s3,-2
    2f04:	00529293          	slli	t0,t0,0x5
    2f08:	00531313          	slli	t1,t1,0x5
    2f0c:	005902b3          	add	t0,s2,t0
    2f10:	00690333          	add	t1,s2,t1
    2f14:	0002b383          	ld	t2,0(t0)
    2f18:	00033e03          	ld	t3,0(t1)
    2f1c:	01c2b023          	sd	t3,0(t0)
    2f20:	00733023          	sd	t2,0(t1)
    2f24:	0082b383          	ld	t2,8(t0)
    2f28:	00833e03          	ld	t3,8(t1)
    2f2c:	01c2b423          	sd	t3,8(t0)
    2f30:	00733423          	sd	t2,8(t1)
    2f34:	0102b383          	ld	t2,16(t0)
    2f38:	01033e03          	ld	t3,16(t1)
    2f3c:	01c2b823          	sd	t3,16(t0)
    2f40:	00733823          	sd	t2,16(t1)
    2f44:	0182b383          	ld	t2,24(t0)
    2f48:	01833e03          	ld	t3,24(t1)
    2f4c:	01c2bc23          	sd	t3,24(t0)
    2f50:	00733c23          	sd	t2,24(t1)
    2f54:	00200513          	li	a0,2
    2f58:	8a8fd0ef          	jal	0 <evm_entry>
    2f5c:	fff98993          	addi	s3,s3,-1
    2f60:	00400513          	li	a0,4
    2f64:	89cfd0ef          	jal	0 <evm_entry>
    2f68:	fff98293          	addi	t0,s3,-1
    2f6c:	00529293          	slli	t0,t0,0x5
    2f70:	005902b3          	add	t0,s2,t0
    2f74:	00599313          	slli	t1,s3,0x5
    2f78:	00690333          	add	t1,s2,t1
    2f7c:	0002b383          	ld	t2,0(t0)
    2f80:	0082be03          	ld	t3,8(t0)
    2f84:	0102be83          	ld	t4,16(t0)
    2f88:	0182bf03          	ld	t5,24(t0)
    2f8c:	00733023          	sd	t2,0(t1)
    2f90:	01c33423          	sd	t3,8(t1)
    2f94:	01d33823          	sd	t4,16(t1)
    2f98:	01e33c23          	sd	t5,24(t1)
    2f9c:	00198993          	addi	s3,s3,1
    2fa0:	00500513          	li	a0,5
    2fa4:	85cfd0ef          	jal	0 <evm_entry>
    2fa8:	00300513          	li	a0,3
    2fac:	854fd0ef          	jal	0 <evm_entry>
    2fb0:	fff98293          	addi	t0,s3,-1
    2fb4:	ffd98313          	addi	t1,s3,-3
    2fb8:	00529293          	slli	t0,t0,0x5
    2fbc:	00531313          	slli	t1,t1,0x5
    2fc0:	005902b3          	add	t0,s2,t0
    2fc4:	00690333          	add	t1,s2,t1
    2fc8:	0002b383          	ld	t2,0(t0)
    2fcc:	00033e03          	ld	t3,0(t1)
    2fd0:	01c2b023          	sd	t3,0(t0)
    2fd4:	00733023          	sd	t2,0(t1)
    2fd8:	0082b383          	ld	t2,8(t0)
    2fdc:	00833e03          	ld	t3,8(t1)
    2fe0:	01c2b423          	sd	t3,8(t0)
    2fe4:	00733423          	sd	t2,8(t1)
    2fe8:	0102b383          	ld	t2,16(t0)
    2fec:	01033e03          	ld	t3,16(t1)
    2ff0:	01c2b823          	sd	t3,16(t0)
    2ff4:	00733823          	sd	t2,16(t1)
    2ff8:	0182b383          	ld	t2,24(t0)
    2ffc:	01833e03          	ld	t3,24(t1)
    3000:	01c2bc23          	sd	t3,24(t0)
    3004:	00733c23          	sd	t2,24(t1)
    3008:	00400513          	li	a0,4
    300c:	ff5fc0ef          	jal	0 <evm_entry>
    3010:	00300513          	li	a0,3
    3014:	fedfc0ef          	jal	0 <evm_entry>
    3018:	fff98293          	addi	t0,s3,-1
    301c:	ffe98313          	addi	t1,s3,-2
    3020:	00529293          	slli	t0,t0,0x5
    3024:	00531313          	slli	t1,t1,0x5
    3028:	005902b3          	add	t0,s2,t0
    302c:	00690333          	add	t1,s2,t1
    3030:	0002b383          	ld	t2,0(t0)
    3034:	00033e03          	ld	t3,0(t1)
    3038:	01c2b023          	sd	t3,0(t0)
    303c:	00733023          	sd	t2,0(t1)
    3040:	0082b383          	ld	t2,8(t0)
    3044:	00833e03          	ld	t3,8(t1)
    3048:	01c2b423          	sd	t3,8(t0)
    304c:	00733423          	sd	t2,8(t1)
    3050:	0102b383          	ld	t2,16(t0)
    3054:	01033e03          	ld	t3,16(t1)
    3058:	01c2b823          	sd	t3,16(t0)
    305c:	00733823          	sd	t2,16(t1)
    3060:	0182b383          	ld	t2,24(t0)
    3064:	01833e03          	ld	t3,24(t1)
    3068:	01c2bc23          	sd	t3,24(t0)
    306c:	00733c23          	sd	t2,24(t1)
    3070:	00200513          	li	a0,2
    3074:	f8dfc0ef          	jal	0 <evm_entry>
    3078:	fff98993          	addi	s3,s3,-1
    307c:	00500513          	li	a0,5
    3080:	f81fc0ef          	jal	0 <evm_entry>
    3084:	00300513          	li	a0,3
    3088:	f79fc0ef          	jal	0 <evm_entry>
    308c:	fff98293          	addi	t0,s3,-1
    3090:	ffd98313          	addi	t1,s3,-3
    3094:	00529293          	slli	t0,t0,0x5
    3098:	00531313          	slli	t1,t1,0x5
    309c:	005902b3          	add	t0,s2,t0
    30a0:	00690333          	add	t1,s2,t1
    30a4:	0002b383          	ld	t2,0(t0)
    30a8:	00033e03          	ld	t3,0(t1)
    30ac:	01c2b023          	sd	t3,0(t0)
    30b0:	00733023          	sd	t2,0(t1)
    30b4:	0082b383          	ld	t2,8(t0)
    30b8:	00833e03          	ld	t3,8(t1)
    30bc:	01c2b423          	sd	t3,8(t0)
    30c0:	00733423          	sd	t2,8(t1)
    30c4:	0102b383          	ld	t2,16(t0)
    30c8:	01033e03          	ld	t3,16(t1)
    30cc:	01c2b823          	sd	t3,16(t0)
    30d0:	00733823          	sd	t2,16(t1)
    30d4:	0182b383          	ld	t2,24(t0)
    30d8:	01833e03          	ld	t3,24(t1)
    30dc:	01c2bc23          	sd	t3,24(t0)
    30e0:	00733c23          	sd	t2,24(t1)
    30e4:	00400513          	li	a0,4
    30e8:	f19fc0ef          	jal	0 <evm_entry>
    30ec:	00300513          	li	a0,3
    30f0:	f11fc0ef          	jal	0 <evm_entry>
    30f4:	fff98293          	addi	t0,s3,-1
    30f8:	ffe98313          	addi	t1,s3,-2
    30fc:	00529293          	slli	t0,t0,0x5
    3100:	00531313          	slli	t1,t1,0x5
    3104:	005902b3          	add	t0,s2,t0
    3108:	00690333          	add	t1,s2,t1
    310c:	0002b383          	ld	t2,0(t0)
    3110:	00033e03          	ld	t3,0(t1)
    3114:	01c2b023          	sd	t3,0(t0)
    3118:	00733023          	sd	t2,0(t1)
    311c:	0082b383          	ld	t2,8(t0)
    3120:	00833e03          	ld	t3,8(t1)
    3124:	01c2b423          	sd	t3,8(t0)
    3128:	00733423          	sd	t2,8(t1)
    312c:	0102b383          	ld	t2,16(t0)
    3130:	01033e03          	ld	t3,16(t1)
    3134:	01c2b823          	sd	t3,16(t0)
    3138:	00733823          	sd	t2,16(t1)
    313c:	0182b383          	ld	t2,24(t0)
    3140:	01833e03          	ld	t3,24(t1)
    3144:	01c2bc23          	sd	t3,24(t0)
    3148:	00733c23          	sd	t2,24(t1)
    314c:	00200513          	li	a0,2
    3150:	eb1fc0ef          	jal	0 <evm_entry>
    3154:	fff98993          	addi	s3,s3,-1
    3158:	00800513          	li	a0,8
    315c:	ea5fc0ef          	jal	0 <evm_entry>
    3160:	fff98993          	addi	s3,s3,-1
    3164:	00599293          	slli	t0,s3,0x5
    3168:	005902b3          	add	t0,s2,t0
    316c:	0002b303          	ld	t1,0(t0)
    3170:	00231313          	slli	t1,t1,0x2
    3174:	00000397          	auipc	t2,0x0
    3178:	00038393          	mv	t2,t2
    317c:	006383b3          	add	t2,t2,t1
    3180:	0003ae03          	lw	t3,0(t2) # 3174 <jumpdest_19+0x290>
    3184:	000e0067          	jr	t3
    3188:	00300513          	li	a0,3
    318c:	e75fc0ef          	jal	0 <evm_entry>

0000000000003190 <jumpdest_20>:
    3190:	00300513          	li	a0,3
    3194:	e6dfc0ef          	jal	0 <evm_entry>
    3198:	00300513          	li	a0,3
    319c:	e65fc0ef          	jal	0 <evm_entry>
    31a0:	00600513          	li	a0,6
    31a4:	e5dfc0ef          	jal	0 <evm_entry>
    31a8:	00599313          	slli	t1,s3,0x5
    31ac:	00690333          	add	t1,s2,t1
    31b0:	00000293          	li	t0,0
    31b4:	00533023          	sd	t0,0(t1)
    31b8:	00000293          	li	t0,0
    31bc:	00533423          	sd	t0,8(t1)
    31c0:	00000293          	li	t0,0
    31c4:	00533823          	sd	t0,16(t1)
    31c8:	00000293          	li	t0,0
    31cc:	00533c23          	sd	t0,24(t1)
    31d0:	00198993          	addi	s3,s3,1
    31d4:	00400513          	li	a0,4
    31d8:	e29fc0ef          	jal	0 <evm_entry>
    31dc:	fff98293          	addi	t0,s3,-1
    31e0:	00529293          	slli	t0,t0,0x5
    31e4:	005902b3          	add	t0,s2,t0
    31e8:	00599313          	slli	t1,s3,0x5
    31ec:	00690333          	add	t1,s2,t1
    31f0:	0002b383          	ld	t2,0(t0)
    31f4:	0082be03          	ld	t3,8(t0)
    31f8:	0102be83          	ld	t4,16(t0)
    31fc:	0182bf03          	ld	t5,24(t0)
    3200:	00733023          	sd	t2,0(t1)
    3204:	01c33423          	sd	t3,8(t1)
    3208:	01d33823          	sd	t4,16(t1)
    320c:	01e33c23          	sd	t5,24(t1)
    3210:	00198993          	addi	s3,s3,1
    3214:	00600513          	li	a0,6
    3218:	de9fc0ef          	jal	0 <evm_entry>
    321c:	ffd98293          	addi	t0,s3,-3
    3220:	00529293          	slli	t0,t0,0x5
    3224:	005902b3          	add	t0,s2,t0
    3228:	00599313          	slli	t1,s3,0x5
    322c:	00690333          	add	t1,s2,t1
    3230:	0002b383          	ld	t2,0(t0)
    3234:	0082be03          	ld	t3,8(t0)
    3238:	0102be83          	ld	t4,16(t0)
    323c:	0182bf03          	ld	t5,24(t0)
    3240:	00733023          	sd	t2,0(t1)
    3244:	01c33423          	sd	t3,8(t1)
    3248:	01d33823          	sd	t4,16(t1)
    324c:	01e33c23          	sd	t5,24(t1)
    3250:	00198993          	addi	s3,s3,1
    3254:	00300513          	li	a0,3
    3258:	da9fc0ef          	jal	0 <evm_entry>
    325c:	00600513          	li	a0,6
    3260:	da1fc0ef          	jal	0 <evm_entry>
    3264:	00599313          	slli	t1,s3,0x5
    3268:	00690333          	add	t1,s2,t1
    326c:	00000293          	li	t0,0
    3270:	00533023          	sd	t0,0(t1)
    3274:	00000293          	li	t0,0
    3278:	00533423          	sd	t0,8(t1)
    327c:	00000293          	li	t0,0
    3280:	00533823          	sd	t0,16(t1)
    3284:	00000293          	li	t0,0
    3288:	00533c23          	sd	t0,24(t1)
    328c:	00198993          	addi	s3,s3,1
    3290:	00300513          	li	a0,3
    3294:	d6dfc0ef          	jal	0 <evm_entry>
    3298:	00900513          	li	a0,9
    329c:	d65fc0ef          	jal	0 <evm_entry>
    32a0:	00600513          	li	a0,6
    32a4:	d5dfc0ef          	jal	0 <evm_entry>
    32a8:	00599313          	slli	t1,s3,0x5
    32ac:	00690333          	add	t1,s2,t1
    32b0:	12500293          	li	t0,293
    32b4:	00533023          	sd	t0,0(t1)
    32b8:	00000293          	li	t0,0
    32bc:	00533423          	sd	t0,8(t1)
    32c0:	00000293          	li	t0,0
    32c4:	00533823          	sd	t0,16(t1)
    32c8:	00000293          	li	t0,0
    32cc:	00533c23          	sd	t0,24(t1)
    32d0:	00198993          	addi	s3,s3,1
    32d4:	00500513          	li	a0,5
    32d8:	d29fc0ef          	jal	0 <evm_entry>
    32dc:	00300513          	li	a0,3
    32e0:	d21fc0ef          	jal	0 <evm_entry>
    32e4:	fff98293          	addi	t0,s3,-1
    32e8:	ffd98313          	addi	t1,s3,-3
    32ec:	00529293          	slli	t0,t0,0x5
    32f0:	00531313          	slli	t1,t1,0x5
    32f4:	005902b3          	add	t0,s2,t0
    32f8:	00690333          	add	t1,s2,t1
    32fc:	0002b383          	ld	t2,0(t0)
    3300:	00033e03          	ld	t3,0(t1)
    3304:	01c2b023          	sd	t3,0(t0)
    3308:	00733023          	sd	t2,0(t1)
    330c:	0082b383          	ld	t2,8(t0)
    3310:	00833e03          	ld	t3,8(t1)
    3314:	01c2b423          	sd	t3,8(t0)
    3318:	00733423          	sd	t2,8(t1)
    331c:	0102b383          	ld	t2,16(t0)
    3320:	01033e03          	ld	t3,16(t1)
    3324:	01c2b823          	sd	t3,16(t0)
    3328:	00733823          	sd	t2,16(t1)
    332c:	0182b383          	ld	t2,24(t0)
    3330:	01833e03          	ld	t3,24(t1)
    3334:	01c2bc23          	sd	t3,24(t0)
    3338:	00733c23          	sd	t2,24(t1)
    333c:	00400513          	li	a0,4
    3340:	cc1fc0ef          	jal	0 <evm_entry>
    3344:	00300513          	li	a0,3
    3348:	cb9fc0ef          	jal	0 <evm_entry>
    334c:	fff98293          	addi	t0,s3,-1
    3350:	ffe98313          	addi	t1,s3,-2
    3354:	00529293          	slli	t0,t0,0x5
    3358:	00531313          	slli	t1,t1,0x5
    335c:	005902b3          	add	t0,s2,t0
    3360:	00690333          	add	t1,s2,t1
    3364:	0002b383          	ld	t2,0(t0)
    3368:	00033e03          	ld	t3,0(t1)
    336c:	01c2b023          	sd	t3,0(t0)
    3370:	00733023          	sd	t2,0(t1)
    3374:	0082b383          	ld	t2,8(t0)
    3378:	00833e03          	ld	t3,8(t1)
    337c:	01c2b423          	sd	t3,8(t0)
    3380:	00733423          	sd	t2,8(t1)
    3384:	0102b383          	ld	t2,16(t0)
    3388:	01033e03          	ld	t3,16(t1)
    338c:	01c2b823          	sd	t3,16(t0)
    3390:	00733823          	sd	t2,16(t1)
    3394:	0182b383          	ld	t2,24(t0)
    3398:	01833e03          	ld	t3,24(t1)
    339c:	01c2bc23          	sd	t3,24(t0)
    33a0:	00733c23          	sd	t2,24(t1)
    33a4:	00900513          	li	a0,9
    33a8:	c59fc0ef          	jal	0 <evm_entry>
    33ac:	00600513          	li	a0,6
    33b0:	c51fc0ef          	jal	0 <evm_entry>
    33b4:	00599313          	slli	t1,s3,0x5
    33b8:	00690333          	add	t1,s2,t1
    33bc:	24700293          	li	t0,583
    33c0:	00533023          	sd	t0,0(t1)
    33c4:	00000293          	li	t0,0
    33c8:	00533423          	sd	t0,8(t1)
    33cc:	00000293          	li	t0,0
    33d0:	00533823          	sd	t0,16(t1)
    33d4:	00000293          	li	t0,0
    33d8:	00533c23          	sd	t0,24(t1)
    33dc:	00198993          	addi	s3,s3,1
    33e0:	00800513          	li	a0,8
    33e4:	c1dfc0ef          	jal	0 <evm_entry>
    33e8:	fff98993          	addi	s3,s3,-1
    33ec:	00599293          	slli	t0,s3,0x5
    33f0:	005902b3          	add	t0,s2,t0
    33f4:	0002b303          	ld	t1,0(t0)
    33f8:	00231313          	slli	t1,t1,0x2
    33fc:	00000397          	auipc	t2,0x0
    3400:	00038393          	mv	t2,t2
    3404:	006383b3          	add	t2,t2,t1
    3408:	0003ae03          	lw	t3,0(t2) # 33fc <jumpdest_20+0x26c>
    340c:	000e0067          	jr	t3
    3410:	00300513          	li	a0,3
    3414:	bedfc0ef          	jal	0 <evm_entry>

0000000000003418 <jumpdest_21>:
    3418:	00300513          	li	a0,3
    341c:	be5fc0ef          	jal	0 <evm_entry>
    3420:	00400513          	li	a0,4
    3424:	bddfc0ef          	jal	0 <evm_entry>
    3428:	00300513          	li	a0,3
    342c:	bd5fc0ef          	jal	0 <evm_entry>
    3430:	fff98293          	addi	t0,s3,-1
    3434:	ffe98313          	addi	t1,s3,-2
    3438:	00529293          	slli	t0,t0,0x5
    343c:	00531313          	slli	t1,t1,0x5
    3440:	005902b3          	add	t0,s2,t0
    3444:	00690333          	add	t1,s2,t1
    3448:	0002b383          	ld	t2,0(t0)
    344c:	00033e03          	ld	t3,0(t1)
    3450:	01c2b023          	sd	t3,0(t0)
    3454:	00733023          	sd	t2,0(t1)
    3458:	0082b383          	ld	t2,8(t0)
    345c:	00833e03          	ld	t3,8(t1)
    3460:	01c2b423          	sd	t3,8(t0)
    3464:	00733423          	sd	t2,8(t1)
    3468:	0102b383          	ld	t2,16(t0)
    346c:	01033e03          	ld	t3,16(t1)
    3470:	01c2b823          	sd	t3,16(t0)
    3474:	00733823          	sd	t2,16(t1)
    3478:	0182b383          	ld	t2,24(t0)
    347c:	01833e03          	ld	t3,24(t1)
    3480:	01c2bc23          	sd	t3,24(t0)
    3484:	00733c23          	sd	t2,24(t1)
    3488:	00200513          	li	a0,2
    348c:	b75fc0ef          	jal	0 <evm_entry>
    3490:	fff98993          	addi	s3,s3,-1
    3494:	00400513          	li	a0,4
    3498:	b69fc0ef          	jal	0 <evm_entry>
    349c:	fff98293          	addi	t0,s3,-1
    34a0:	00529293          	slli	t0,t0,0x5
    34a4:	005902b3          	add	t0,s2,t0
    34a8:	00599313          	slli	t1,s3,0x5
    34ac:	00690333          	add	t1,s2,t1
    34b0:	0002b383          	ld	t2,0(t0)
    34b4:	0082be03          	ld	t3,8(t0)
    34b8:	0102be83          	ld	t4,16(t0)
    34bc:	0182bf03          	ld	t5,24(t0)
    34c0:	00733023          	sd	t2,0(t1)
    34c4:	01c33423          	sd	t3,8(t1)
    34c8:	01d33823          	sd	t4,16(t1)
    34cc:	01e33c23          	sd	t5,24(t1)
    34d0:	00198993          	addi	s3,s3,1
    34d4:	00500513          	li	a0,5
    34d8:	b29fc0ef          	jal	0 <evm_entry>
    34dc:	00300513          	li	a0,3
    34e0:	b21fc0ef          	jal	0 <evm_entry>
    34e4:	fff98293          	addi	t0,s3,-1
    34e8:	ffd98313          	addi	t1,s3,-3
    34ec:	00529293          	slli	t0,t0,0x5
    34f0:	00531313          	slli	t1,t1,0x5
    34f4:	005902b3          	add	t0,s2,t0
    34f8:	00690333          	add	t1,s2,t1
    34fc:	0002b383          	ld	t2,0(t0)
    3500:	00033e03          	ld	t3,0(t1)
    3504:	01c2b023          	sd	t3,0(t0)
    3508:	00733023          	sd	t2,0(t1)
    350c:	0082b383          	ld	t2,8(t0)
    3510:	00833e03          	ld	t3,8(t1)
    3514:	01c2b423          	sd	t3,8(t0)
    3518:	00733423          	sd	t2,8(t1)
    351c:	0102b383          	ld	t2,16(t0)
    3520:	01033e03          	ld	t3,16(t1)
    3524:	01c2b823          	sd	t3,16(t0)
    3528:	00733823          	sd	t2,16(t1)
    352c:	0182b383          	ld	t2,24(t0)
    3530:	01833e03          	ld	t3,24(t1)
    3534:	01c2bc23          	sd	t3,24(t0)
    3538:	00733c23          	sd	t2,24(t1)
    353c:	00400513          	li	a0,4
    3540:	ac1fc0ef          	jal	0 <evm_entry>
    3544:	00300513          	li	a0,3
    3548:	ab9fc0ef          	jal	0 <evm_entry>
    354c:	fff98293          	addi	t0,s3,-1
    3550:	ffe98313          	addi	t1,s3,-2
    3554:	00529293          	slli	t0,t0,0x5
    3558:	00531313          	slli	t1,t1,0x5
    355c:	005902b3          	add	t0,s2,t0
    3560:	00690333          	add	t1,s2,t1
    3564:	0002b383          	ld	t2,0(t0)
    3568:	00033e03          	ld	t3,0(t1)
    356c:	01c2b023          	sd	t3,0(t0)
    3570:	00733023          	sd	t2,0(t1)
    3574:	0082b383          	ld	t2,8(t0)
    3578:	00833e03          	ld	t3,8(t1)
    357c:	01c2b423          	sd	t3,8(t0)
    3580:	00733423          	sd	t2,8(t1)
    3584:	0102b383          	ld	t2,16(t0)
    3588:	01033e03          	ld	t3,16(t1)
    358c:	01c2b823          	sd	t3,16(t0)
    3590:	00733823          	sd	t2,16(t1)
    3594:	0182b383          	ld	t2,24(t0)
    3598:	01833e03          	ld	t3,24(t1)
    359c:	01c2bc23          	sd	t3,24(t0)
    35a0:	00733c23          	sd	t2,24(t1)
    35a4:	00200513          	li	a0,2
    35a8:	a59fc0ef          	jal	0 <evm_entry>
    35ac:	fff98993          	addi	s3,s3,-1
    35b0:	00500513          	li	a0,5
    35b4:	a4dfc0ef          	jal	0 <evm_entry>
    35b8:	00300513          	li	a0,3
    35bc:	a45fc0ef          	jal	0 <evm_entry>
    35c0:	fff98293          	addi	t0,s3,-1
    35c4:	ffd98313          	addi	t1,s3,-3
    35c8:	00529293          	slli	t0,t0,0x5
    35cc:	00531313          	slli	t1,t1,0x5
    35d0:	005902b3          	add	t0,s2,t0
    35d4:	00690333          	add	t1,s2,t1
    35d8:	0002b383          	ld	t2,0(t0)
    35dc:	00033e03          	ld	t3,0(t1)
    35e0:	01c2b023          	sd	t3,0(t0)
    35e4:	00733023          	sd	t2,0(t1)
    35e8:	0082b383          	ld	t2,8(t0)
    35ec:	00833e03          	ld	t3,8(t1)
    35f0:	01c2b423          	sd	t3,8(t0)
    35f4:	00733423          	sd	t2,8(t1)
    35f8:	0102b383          	ld	t2,16(t0)
    35fc:	01033e03          	ld	t3,16(t1)
    3600:	01c2b823          	sd	t3,16(t0)
    3604:	00733823          	sd	t2,16(t1)
    3608:	0182b383          	ld	t2,24(t0)
    360c:	01833e03          	ld	t3,24(t1)
    3610:	01c2bc23          	sd	t3,24(t0)
    3614:	00733c23          	sd	t2,24(t1)
    3618:	00400513          	li	a0,4
    361c:	9e5fc0ef          	jal	0 <evm_entry>
    3620:	00300513          	li	a0,3
    3624:	9ddfc0ef          	jal	0 <evm_entry>
    3628:	fff98293          	addi	t0,s3,-1
    362c:	ffe98313          	addi	t1,s3,-2
    3630:	00529293          	slli	t0,t0,0x5
    3634:	00531313          	slli	t1,t1,0x5
    3638:	005902b3          	add	t0,s2,t0
    363c:	00690333          	add	t1,s2,t1
    3640:	0002b383          	ld	t2,0(t0)
    3644:	00033e03          	ld	t3,0(t1)
    3648:	01c2b023          	sd	t3,0(t0)
    364c:	00733023          	sd	t2,0(t1)
    3650:	0082b383          	ld	t2,8(t0)
    3654:	00833e03          	ld	t3,8(t1)
    3658:	01c2b423          	sd	t3,8(t0)
    365c:	00733423          	sd	t2,8(t1)
    3660:	0102b383          	ld	t2,16(t0)
    3664:	01033e03          	ld	t3,16(t1)
    3668:	01c2b823          	sd	t3,16(t0)
    366c:	00733823          	sd	t2,16(t1)
    3670:	0182b383          	ld	t2,24(t0)
    3674:	01833e03          	ld	t3,24(t1)
    3678:	01c2bc23          	sd	t3,24(t0)
    367c:	00733c23          	sd	t2,24(t1)
    3680:	00200513          	li	a0,2
    3684:	97dfc0ef          	jal	0 <evm_entry>
    3688:	fff98993          	addi	s3,s3,-1
    368c:	00800513          	li	a0,8
    3690:	971fc0ef          	jal	0 <evm_entry>
    3694:	fff98993          	addi	s3,s3,-1
    3698:	00599293          	slli	t0,s3,0x5
    369c:	005902b3          	add	t0,s2,t0
    36a0:	0002b303          	ld	t1,0(t0)
    36a4:	00231313          	slli	t1,t1,0x2
    36a8:	00000397          	auipc	t2,0x0
    36ac:	00038393          	mv	t2,t2
    36b0:	006383b3          	add	t2,t2,t1
    36b4:	0003ae03          	lw	t3,0(t2) # 36a8 <jumpdest_21+0x290>
    36b8:	000e0067          	jr	t3
    36bc:	00300513          	li	a0,3
    36c0:	941fc0ef          	jal	0 <evm_entry>

00000000000036c4 <jumpdest_22>:
    36c4:	00300513          	li	a0,3
    36c8:	939fc0ef          	jal	0 <evm_entry>
    36cc:	00300513          	li	a0,3
    36d0:	931fc0ef          	jal	0 <evm_entry>
    36d4:	00600513          	li	a0,6
    36d8:	929fc0ef          	jal	0 <evm_entry>
    36dc:	00599313          	slli	t1,s3,0x5
    36e0:	00690333          	add	t1,s2,t1
    36e4:	00000293          	li	t0,0
    36e8:	00533023          	sd	t0,0(t1)
    36ec:	00000293          	li	t0,0
    36f0:	00533423          	sd	t0,8(t1)
    36f4:	00000293          	li	t0,0
    36f8:	00533823          	sd	t0,16(t1)
    36fc:	00000293          	li	t0,0
    3700:	00533c23          	sd	t0,24(t1)
    3704:	00198993          	addi	s3,s3,1
    3708:	00400513          	li	a0,4
    370c:	8f5fc0ef          	jal	0 <evm_entry>
    3710:	fff98293          	addi	t0,s3,-1
    3714:	00529293          	slli	t0,t0,0x5
    3718:	005902b3          	add	t0,s2,t0
    371c:	00599313          	slli	t1,s3,0x5
    3720:	00690333          	add	t1,s2,t1
    3724:	0002b383          	ld	t2,0(t0)
    3728:	0082be03          	ld	t3,8(t0)
    372c:	0102be83          	ld	t4,16(t0)
    3730:	0182bf03          	ld	t5,24(t0)
    3734:	00733023          	sd	t2,0(t1)
    3738:	01c33423          	sd	t3,8(t1)
    373c:	01d33823          	sd	t4,16(t1)
    3740:	01e33c23          	sd	t5,24(t1)
    3744:	00198993          	addi	s3,s3,1
    3748:	00600513          	li	a0,6
    374c:	8b5fc0ef          	jal	0 <evm_entry>
    3750:	ffd98293          	addi	t0,s3,-3
    3754:	00529293          	slli	t0,t0,0x5
    3758:	005902b3          	add	t0,s2,t0
    375c:	00599313          	slli	t1,s3,0x5
    3760:	00690333          	add	t1,s2,t1
    3764:	0002b383          	ld	t2,0(t0)
    3768:	0082be03          	ld	t3,8(t0)
    376c:	0102be83          	ld	t4,16(t0)
    3770:	0182bf03          	ld	t5,24(t0)
    3774:	00733023          	sd	t2,0(t1)
    3778:	01c33423          	sd	t3,8(t1)
    377c:	01d33823          	sd	t4,16(t1)
    3780:	01e33c23          	sd	t5,24(t1)
    3784:	00198993          	addi	s3,s3,1
    3788:	00300513          	li	a0,3
    378c:	875fc0ef          	jal	0 <evm_entry>
    3790:	00600513          	li	a0,6
    3794:	86dfc0ef          	jal	0 <evm_entry>
    3798:	00599313          	slli	t1,s3,0x5
    379c:	00690333          	add	t1,s2,t1
    37a0:	00000293          	li	t0,0
    37a4:	00533023          	sd	t0,0(t1)
    37a8:	00000293          	li	t0,0
    37ac:	00533423          	sd	t0,8(t1)
    37b0:	00000293          	li	t0,0
    37b4:	00533823          	sd	t0,16(t1)
    37b8:	00000293          	li	t0,0
    37bc:	00533c23          	sd	t0,24(t1)
    37c0:	00198993          	addi	s3,s3,1
    37c4:	00300513          	li	a0,3
    37c8:	839fc0ef          	jal	0 <evm_entry>
    37cc:	00900513          	li	a0,9
    37d0:	831fc0ef          	jal	0 <evm_entry>
    37d4:	00600513          	li	a0,6
    37d8:	829fc0ef          	jal	0 <evm_entry>
    37dc:	00599313          	slli	t1,s3,0x5
    37e0:	00690333          	add	t1,s2,t1
    37e4:	13f00293          	li	t0,319
    37e8:	00533023          	sd	t0,0(t1)
    37ec:	00000293          	li	t0,0
    37f0:	00533423          	sd	t0,8(t1)
    37f4:	00000293          	li	t0,0
    37f8:	00533823          	sd	t0,16(t1)
    37fc:	00000293          	li	t0,0
    3800:	00533c23          	sd	t0,24(t1)
    3804:	00198993          	addi	s3,s3,1
    3808:	00500513          	li	a0,5
    380c:	ff4fc0ef          	jal	0 <evm_entry>
    3810:	00300513          	li	a0,3
    3814:	fecfc0ef          	jal	0 <evm_entry>
    3818:	fff98293          	addi	t0,s3,-1
    381c:	ffd98313          	addi	t1,s3,-3
    3820:	00529293          	slli	t0,t0,0x5
    3824:	00531313          	slli	t1,t1,0x5
    3828:	005902b3          	add	t0,s2,t0
    382c:	00690333          	add	t1,s2,t1
    3830:	0002b383          	ld	t2,0(t0)
    3834:	00033e03          	ld	t3,0(t1)
    3838:	01c2b023          	sd	t3,0(t0)
    383c:	00733023          	sd	t2,0(t1)
    3840:	0082b383          	ld	t2,8(t0)
    3844:	00833e03          	ld	t3,8(t1)
    3848:	01c2b423          	sd	t3,8(t0)
    384c:	00733423          	sd	t2,8(t1)
    3850:	0102b383          	ld	t2,16(t0)
    3854:	01033e03          	ld	t3,16(t1)
    3858:	01c2b823          	sd	t3,16(t0)
    385c:	00733823          	sd	t2,16(t1)
    3860:	0182b383          	ld	t2,24(t0)
    3864:	01833e03          	ld	t3,24(t1)
    3868:	01c2bc23          	sd	t3,24(t0)
    386c:	00733c23          	sd	t2,24(t1)
    3870:	00400513          	li	a0,4
    3874:	f8cfc0ef          	jal	0 <evm_entry>
    3878:	00300513          	li	a0,3
    387c:	f84fc0ef          	jal	0 <evm_entry>
    3880:	fff98293          	addi	t0,s3,-1
    3884:	ffe98313          	addi	t1,s3,-2
    3888:	00529293          	slli	t0,t0,0x5
    388c:	00531313          	slli	t1,t1,0x5
    3890:	005902b3          	add	t0,s2,t0
    3894:	00690333          	add	t1,s2,t1
    3898:	0002b383          	ld	t2,0(t0)
    389c:	00033e03          	ld	t3,0(t1)
    38a0:	01c2b023          	sd	t3,0(t0)
    38a4:	00733023          	sd	t2,0(t1)
    38a8:	0082b383          	ld	t2,8(t0)
    38ac:	00833e03          	ld	t3,8(t1)
    38b0:	01c2b423          	sd	t3,8(t0)
    38b4:	00733423          	sd	t2,8(t1)
    38b8:	0102b383          	ld	t2,16(t0)
    38bc:	01033e03          	ld	t3,16(t1)
    38c0:	01c2b823          	sd	t3,16(t0)
    38c4:	00733823          	sd	t2,16(t1)
    38c8:	0182b383          	ld	t2,24(t0)
    38cc:	01833e03          	ld	t3,24(t1)
    38d0:	01c2bc23          	sd	t3,24(t0)
    38d4:	00733c23          	sd	t2,24(t1)
    38d8:	00900513          	li	a0,9
    38dc:	f24fc0ef          	jal	0 <evm_entry>
    38e0:	00600513          	li	a0,6
    38e4:	f1cfc0ef          	jal	0 <evm_entry>
    38e8:	00599313          	slli	t1,s3,0x5
    38ec:	00690333          	add	t1,s2,t1
    38f0:	27a00293          	li	t0,634
    38f4:	00533023          	sd	t0,0(t1)
    38f8:	00000293          	li	t0,0
    38fc:	00533423          	sd	t0,8(t1)
    3900:	00000293          	li	t0,0
    3904:	00533823          	sd	t0,16(t1)
    3908:	00000293          	li	t0,0
    390c:	00533c23          	sd	t0,24(t1)
    3910:	00198993          	addi	s3,s3,1
    3914:	00800513          	li	a0,8
    3918:	ee8fc0ef          	jal	0 <evm_entry>
    391c:	fff98993          	addi	s3,s3,-1
    3920:	00599293          	slli	t0,s3,0x5
    3924:	005902b3          	add	t0,s2,t0
    3928:	0002b303          	ld	t1,0(t0)
    392c:	00231313          	slli	t1,t1,0x2
    3930:	00000397          	auipc	t2,0x0
    3934:	00038393          	mv	t2,t2
    3938:	006383b3          	add	t2,t2,t1
    393c:	0003ae03          	lw	t3,0(t2) # 3930 <jumpdest_22+0x26c>
    3940:	000e0067          	jr	t3
    3944:	00300513          	li	a0,3
    3948:	eb8fc0ef          	jal	0 <evm_entry>

000000000000394c <jumpdest_23>:
    394c:	00300513          	li	a0,3
    3950:	eb0fc0ef          	jal	0 <evm_entry>
    3954:	00400513          	li	a0,4
    3958:	ea8fc0ef          	jal	0 <evm_entry>
    395c:	00300513          	li	a0,3
    3960:	ea0fc0ef          	jal	0 <evm_entry>
    3964:	fff98293          	addi	t0,s3,-1
    3968:	ffe98313          	addi	t1,s3,-2
    396c:	00529293          	slli	t0,t0,0x5
    3970:	00531313          	slli	t1,t1,0x5
    3974:	005902b3          	add	t0,s2,t0
    3978:	00690333          	add	t1,s2,t1
    397c:	0002b383          	ld	t2,0(t0)
    3980:	00033e03          	ld	t3,0(t1)
    3984:	01c2b023          	sd	t3,0(t0)
    3988:	00733023          	sd	t2,0(t1)
    398c:	0082b383          	ld	t2,8(t0)
    3990:	00833e03          	ld	t3,8(t1)
    3994:	01c2b423          	sd	t3,8(t0)
    3998:	00733423          	sd	t2,8(t1)
    399c:	0102b383          	ld	t2,16(t0)
    39a0:	01033e03          	ld	t3,16(t1)
    39a4:	01c2b823          	sd	t3,16(t0)
    39a8:	00733823          	sd	t2,16(t1)
    39ac:	0182b383          	ld	t2,24(t0)
    39b0:	01833e03          	ld	t3,24(t1)
    39b4:	01c2bc23          	sd	t3,24(t0)
    39b8:	00733c23          	sd	t2,24(t1)
    39bc:	00200513          	li	a0,2
    39c0:	e40fc0ef          	jal	0 <evm_entry>
    39c4:	fff98993          	addi	s3,s3,-1
    39c8:	00400513          	li	a0,4
    39cc:	e34fc0ef          	jal	0 <evm_entry>
    39d0:	fff98293          	addi	t0,s3,-1
    39d4:	00529293          	slli	t0,t0,0x5
    39d8:	005902b3          	add	t0,s2,t0
    39dc:	00599313          	slli	t1,s3,0x5
    39e0:	00690333          	add	t1,s2,t1
    39e4:	0002b383          	ld	t2,0(t0)
    39e8:	0082be03          	ld	t3,8(t0)
    39ec:	0102be83          	ld	t4,16(t0)
    39f0:	0182bf03          	ld	t5,24(t0)
    39f4:	00733023          	sd	t2,0(t1)
    39f8:	01c33423          	sd	t3,8(t1)
    39fc:	01d33823          	sd	t4,16(t1)
    3a00:	01e33c23          	sd	t5,24(t1)
    3a04:	00198993          	addi	s3,s3,1
    3a08:	00500513          	li	a0,5
    3a0c:	df4fc0ef          	jal	0 <evm_entry>
    3a10:	00300513          	li	a0,3
    3a14:	decfc0ef          	jal	0 <evm_entry>
    3a18:	fff98293          	addi	t0,s3,-1
    3a1c:	ffd98313          	addi	t1,s3,-3
    3a20:	00529293          	slli	t0,t0,0x5
    3a24:	00531313          	slli	t1,t1,0x5
    3a28:	005902b3          	add	t0,s2,t0
    3a2c:	00690333          	add	t1,s2,t1
    3a30:	0002b383          	ld	t2,0(t0)
    3a34:	00033e03          	ld	t3,0(t1)
    3a38:	01c2b023          	sd	t3,0(t0)
    3a3c:	00733023          	sd	t2,0(t1)
    3a40:	0082b383          	ld	t2,8(t0)
    3a44:	00833e03          	ld	t3,8(t1)
    3a48:	01c2b423          	sd	t3,8(t0)
    3a4c:	00733423          	sd	t2,8(t1)
    3a50:	0102b383          	ld	t2,16(t0)
    3a54:	01033e03          	ld	t3,16(t1)
    3a58:	01c2b823          	sd	t3,16(t0)
    3a5c:	00733823          	sd	t2,16(t1)
    3a60:	0182b383          	ld	t2,24(t0)
    3a64:	01833e03          	ld	t3,24(t1)
    3a68:	01c2bc23          	sd	t3,24(t0)
    3a6c:	00733c23          	sd	t2,24(t1)
    3a70:	00400513          	li	a0,4
    3a74:	d8cfc0ef          	jal	0 <evm_entry>
    3a78:	00300513          	li	a0,3
    3a7c:	d84fc0ef          	jal	0 <evm_entry>
    3a80:	fff98293          	addi	t0,s3,-1
    3a84:	ffe98313          	addi	t1,s3,-2
    3a88:	00529293          	slli	t0,t0,0x5
    3a8c:	00531313          	slli	t1,t1,0x5
    3a90:	005902b3          	add	t0,s2,t0
    3a94:	00690333          	add	t1,s2,t1
    3a98:	0002b383          	ld	t2,0(t0)
    3a9c:	00033e03          	ld	t3,0(t1)
    3aa0:	01c2b023          	sd	t3,0(t0)
    3aa4:	00733023          	sd	t2,0(t1)
    3aa8:	0082b383          	ld	t2,8(t0)
    3aac:	00833e03          	ld	t3,8(t1)
    3ab0:	01c2b423          	sd	t3,8(t0)
    3ab4:	00733423          	sd	t2,8(t1)
    3ab8:	0102b383          	ld	t2,16(t0)
    3abc:	01033e03          	ld	t3,16(t1)
    3ac0:	01c2b823          	sd	t3,16(t0)
    3ac4:	00733823          	sd	t2,16(t1)
    3ac8:	0182b383          	ld	t2,24(t0)
    3acc:	01833e03          	ld	t3,24(t1)
    3ad0:	01c2bc23          	sd	t3,24(t0)
    3ad4:	00733c23          	sd	t2,24(t1)
    3ad8:	00200513          	li	a0,2
    3adc:	d24fc0ef          	jal	0 <evm_entry>
    3ae0:	fff98993          	addi	s3,s3,-1
    3ae4:	00500513          	li	a0,5
    3ae8:	d18fc0ef          	jal	0 <evm_entry>
    3aec:	00300513          	li	a0,3
    3af0:	d10fc0ef          	jal	0 <evm_entry>
    3af4:	fff98293          	addi	t0,s3,-1
    3af8:	ffd98313          	addi	t1,s3,-3
    3afc:	00529293          	slli	t0,t0,0x5
    3b00:	00531313          	slli	t1,t1,0x5
    3b04:	005902b3          	add	t0,s2,t0
    3b08:	00690333          	add	t1,s2,t1
    3b0c:	0002b383          	ld	t2,0(t0)
    3b10:	00033e03          	ld	t3,0(t1)
    3b14:	01c2b023          	sd	t3,0(t0)
    3b18:	00733023          	sd	t2,0(t1)
    3b1c:	0082b383          	ld	t2,8(t0)
    3b20:	00833e03          	ld	t3,8(t1)
    3b24:	01c2b423          	sd	t3,8(t0)
    3b28:	00733423          	sd	t2,8(t1)
    3b2c:	0102b383          	ld	t2,16(t0)
    3b30:	01033e03          	ld	t3,16(t1)
    3b34:	01c2b823          	sd	t3,16(t0)
    3b38:	00733823          	sd	t2,16(t1)
    3b3c:	0182b383          	ld	t2,24(t0)
    3b40:	01833e03          	ld	t3,24(t1)
    3b44:	01c2bc23          	sd	t3,24(t0)
    3b48:	00733c23          	sd	t2,24(t1)
    3b4c:	00400513          	li	a0,4
    3b50:	cb0fc0ef          	jal	0 <evm_entry>
    3b54:	00300513          	li	a0,3
    3b58:	ca8fc0ef          	jal	0 <evm_entry>
    3b5c:	fff98293          	addi	t0,s3,-1
    3b60:	ffe98313          	addi	t1,s3,-2
    3b64:	00529293          	slli	t0,t0,0x5
    3b68:	00531313          	slli	t1,t1,0x5
    3b6c:	005902b3          	add	t0,s2,t0
    3b70:	00690333          	add	t1,s2,t1
    3b74:	0002b383          	ld	t2,0(t0)
    3b78:	00033e03          	ld	t3,0(t1)
    3b7c:	01c2b023          	sd	t3,0(t0)
    3b80:	00733023          	sd	t2,0(t1)
    3b84:	0082b383          	ld	t2,8(t0)
    3b88:	00833e03          	ld	t3,8(t1)
    3b8c:	01c2b423          	sd	t3,8(t0)
    3b90:	00733423          	sd	t2,8(t1)
    3b94:	0102b383          	ld	t2,16(t0)
    3b98:	01033e03          	ld	t3,16(t1)
    3b9c:	01c2b823          	sd	t3,16(t0)
    3ba0:	00733823          	sd	t2,16(t1)
    3ba4:	0182b383          	ld	t2,24(t0)
    3ba8:	01833e03          	ld	t3,24(t1)
    3bac:	01c2bc23          	sd	t3,24(t0)
    3bb0:	00733c23          	sd	t2,24(t1)
    3bb4:	00200513          	li	a0,2
    3bb8:	c48fc0ef          	jal	0 <evm_entry>
    3bbc:	fff98993          	addi	s3,s3,-1
    3bc0:	00800513          	li	a0,8
    3bc4:	c3cfc0ef          	jal	0 <evm_entry>
    3bc8:	fff98993          	addi	s3,s3,-1
    3bcc:	00599293          	slli	t0,s3,0x5
    3bd0:	005902b3          	add	t0,s2,t0
    3bd4:	0002b303          	ld	t1,0(t0)
    3bd8:	00231313          	slli	t1,t1,0x2
    3bdc:	00000397          	auipc	t2,0x0
    3be0:	00038393          	mv	t2,t2
    3be4:	006383b3          	add	t2,t2,t1
    3be8:	0003ae03          	lw	t3,0(t2) # 3bdc <jumpdest_23+0x290>
    3bec:	000e0067          	jr	t3
    3bf0:	00300513          	li	a0,3
    3bf4:	c0cfc0ef          	jal	0 <evm_entry>

0000000000003bf8 <jumpdest_24>:
    3bf8:	00300513          	li	a0,3
    3bfc:	c04fc0ef          	jal	0 <evm_entry>
    3c00:	00300513          	li	a0,3
    3c04:	bfcfc0ef          	jal	0 <evm_entry>
    3c08:	00600513          	li	a0,6
    3c0c:	bf4fc0ef          	jal	0 <evm_entry>
    3c10:	00599313          	slli	t1,s3,0x5
    3c14:	00690333          	add	t1,s2,t1
    3c18:	00000293          	li	t0,0
    3c1c:	00533023          	sd	t0,0(t1)
    3c20:	00000293          	li	t0,0
    3c24:	00533423          	sd	t0,8(t1)
    3c28:	00000293          	li	t0,0
    3c2c:	00533823          	sd	t0,16(t1)
    3c30:	00000293          	li	t0,0
    3c34:	00533c23          	sd	t0,24(t1)
    3c38:	00198993          	addi	s3,s3,1
    3c3c:	00300513          	li	a0,3
    3c40:	bc0fc0ef          	jal	0 <evm_entry>
    3c44:	00500513          	li	a0,5
    3c48:	bb8fc0ef          	jal	0 <evm_entry>
    3c4c:	ffe98293          	addi	t0,s3,-2
    3c50:	00529293          	slli	t0,t0,0x5
    3c54:	005902b3          	add	t0,s2,t0
    3c58:	00599313          	slli	t1,s3,0x5
    3c5c:	00690333          	add	t1,s2,t1
    3c60:	0002b383          	ld	t2,0(t0)
    3c64:	0082be03          	ld	t3,8(t0)
    3c68:	0102be83          	ld	t4,16(t0)
    3c6c:	0182bf03          	ld	t5,24(t0)
    3c70:	00733023          	sd	t2,0(t1)
    3c74:	01c33423          	sd	t3,8(t1)
    3c78:	01d33823          	sd	t4,16(t1)
    3c7c:	01e33c23          	sd	t5,24(t1)
    3c80:	00198993          	addi	s3,s3,1
    3c84:	00800513          	li	a0,8
    3c88:	b78fc0ef          	jal	0 <evm_entry>
    3c8c:	fff98993          	addi	s3,s3,-1
    3c90:	00599293          	slli	t0,s3,0x5
    3c94:	005902b3          	add	t0,s2,t0
    3c98:	0002b303          	ld	t1,0(t0)
    3c9c:	00231313          	slli	t1,t1,0x2
    3ca0:	00000397          	auipc	t2,0x0
    3ca4:	00038393          	mv	t2,t2
    3ca8:	006383b3          	add	t2,t2,t1
    3cac:	0003ae03          	lw	t3,0(t2) # 3ca0 <jumpdest_24+0xa8>
    3cb0:	000e0067          	jr	t3
    3cb4:	00300513          	li	a0,3
    3cb8:	b48fc0ef          	jal	0 <evm_entry>

0000000000003cbc <jumpdest_25>:
    3cbc:	00300513          	li	a0,3
    3cc0:	b40fc0ef          	jal	0 <evm_entry>
    3cc4:	00300513          	li	a0,3
    3cc8:	b38fc0ef          	jal	0 <evm_entry>
    3ccc:	00600513          	li	a0,6
    3cd0:	b30fc0ef          	jal	0 <evm_entry>
    3cd4:	00599313          	slli	t1,s3,0x5
    3cd8:	00690333          	add	t1,s2,t1
    3cdc:	00000293          	li	t0,0
    3ce0:	00533023          	sd	t0,0(t1)
    3ce4:	00000293          	li	t0,0
    3ce8:	00533423          	sd	t0,8(t1)
    3cec:	00000293          	li	t0,0
    3cf0:	00533823          	sd	t0,16(t1)
    3cf4:	00000293          	li	t0,0
    3cf8:	00533c23          	sd	t0,24(t1)
    3cfc:	00198993          	addi	s3,s3,1
    3d00:	00400513          	li	a0,4
    3d04:	afcfc0ef          	jal	0 <evm_entry>
    3d08:	fff98293          	addi	t0,s3,-1
    3d0c:	00529293          	slli	t0,t0,0x5
    3d10:	005902b3          	add	t0,s2,t0
    3d14:	00599313          	slli	t1,s3,0x5
    3d18:	00690333          	add	t1,s2,t1
    3d1c:	0002b383          	ld	t2,0(t0)
    3d20:	0082be03          	ld	t3,8(t0)
    3d24:	0102be83          	ld	t4,16(t0)
    3d28:	0182bf03          	ld	t5,24(t0)
    3d2c:	00733023          	sd	t2,0(t1)
    3d30:	01c33423          	sd	t3,8(t1)
    3d34:	01d33823          	sd	t4,16(t1)
    3d38:	01e33c23          	sd	t5,24(t1)
    3d3c:	00198993          	addi	s3,s3,1
    3d40:	00a00513          	li	a0,10
    3d44:	abcfc0ef          	jal	0 <evm_entry>
    3d48:	ffe98993          	addi	s3,s3,-2
    3d4c:	00599293          	slli	t0,s3,0x5
    3d50:	005902b3          	add	t0,s2,t0
    3d54:	0002b503          	ld	a0,0(t0)
    3d58:	0082b583          	ld	a1,8(t0)
    3d5c:	00850533          	add	a0,a0,s0
    3d60:	aa0fc0ef          	jal	0 <evm_entry>
    3d64:	00300513          	li	a0,3
    3d68:	a98fc0ef          	jal	0 <evm_entry>

0000000000003d6c <jumpdest_26>:
    3d6c:	00300513          	li	a0,3
    3d70:	a90fc0ef          	jal	0 <evm_entry>
    3d74:	00300513          	li	a0,3
    3d78:	a88fc0ef          	jal	0 <evm_entry>
    3d7c:	00600513          	li	a0,6
    3d80:	a80fc0ef          	jal	0 <evm_entry>
    3d84:	00599313          	slli	t1,s3,0x5
    3d88:	00690333          	add	t1,s2,t1
    3d8c:	00000293          	li	t0,0
    3d90:	00533023          	sd	t0,0(t1)
    3d94:	00000293          	li	t0,0
    3d98:	00533423          	sd	t0,8(t1)
    3d9c:	00000293          	li	t0,0
    3da0:	00533823          	sd	t0,16(t1)
    3da4:	00000293          	li	t0,0
    3da8:	00533c23          	sd	t0,24(t1)
    3dac:	00198993          	addi	s3,s3,1
    3db0:	00500513          	li	a0,5
    3db4:	a4cfc0ef          	jal	0 <evm_entry>
    3db8:	ffe98293          	addi	t0,s3,-2
    3dbc:	00529293          	slli	t0,t0,0x5
    3dc0:	005902b3          	add	t0,s2,t0
    3dc4:	00599313          	slli	t1,s3,0x5
    3dc8:	00690333          	add	t1,s2,t1
    3dcc:	0002b383          	ld	t2,0(t0)
    3dd0:	0082be03          	ld	t3,8(t0)
    3dd4:	0102be83          	ld	t4,16(t0)
    3dd8:	0182bf03          	ld	t5,24(t0)
    3ddc:	00733023          	sd	t2,0(t1)
    3de0:	01c33423          	sd	t3,8(t1)
    3de4:	01d33823          	sd	t4,16(t1)
    3de8:	01e33c23          	sd	t5,24(t1)
    3dec:	00198993          	addi	s3,s3,1
    3df0:	00400513          	li	a0,4
    3df4:	a0cfc0ef          	jal	0 <evm_entry>
    3df8:	00300513          	li	a0,3
    3dfc:	a04fc0ef          	jal	0 <evm_entry>
    3e00:	fff98293          	addi	t0,s3,-1
    3e04:	ffe98313          	addi	t1,s3,-2
    3e08:	00529293          	slli	t0,t0,0x5
    3e0c:	00531313          	slli	t1,t1,0x5
    3e10:	005902b3          	add	t0,s2,t0
    3e14:	00690333          	add	t1,s2,t1
    3e18:	0002b383          	ld	t2,0(t0)
    3e1c:	00033e03          	ld	t3,0(t1)
    3e20:	01c2b023          	sd	t3,0(t0)
    3e24:	00733023          	sd	t2,0(t1)
    3e28:	0082b383          	ld	t2,8(t0)
    3e2c:	00833e03          	ld	t3,8(t1)
    3e30:	01c2b423          	sd	t3,8(t0)
    3e34:	00733423          	sd	t2,8(t1)
    3e38:	0102b383          	ld	t2,16(t0)
    3e3c:	01033e03          	ld	t3,16(t1)
    3e40:	01c2b823          	sd	t3,16(t0)
    3e44:	00733823          	sd	t2,16(t1)
    3e48:	0182b383          	ld	t2,24(t0)
    3e4c:	01833e03          	ld	t3,24(t1)
    3e50:	01c2bc23          	sd	t3,24(t0)
    3e54:	00733c23          	sd	t2,24(t1)
    3e58:	00200513          	li	a0,2
    3e5c:	9a4fc0ef          	jal	0 <evm_entry>
    3e60:	fff98993          	addi	s3,s3,-1
    3e64:	00500513          	li	a0,5
    3e68:	998fc0ef          	jal	0 <evm_entry>
    3e6c:	00300513          	li	a0,3
    3e70:	990fc0ef          	jal	0 <evm_entry>
    3e74:	fff98293          	addi	t0,s3,-1
    3e78:	ffd98313          	addi	t1,s3,-3
    3e7c:	00529293          	slli	t0,t0,0x5
    3e80:	00531313          	slli	t1,t1,0x5
    3e84:	005902b3          	add	t0,s2,t0
    3e88:	00690333          	add	t1,s2,t1
    3e8c:	0002b383          	ld	t2,0(t0)
    3e90:	00033e03          	ld	t3,0(t1)
    3e94:	01c2b023          	sd	t3,0(t0)
    3e98:	00733023          	sd	t2,0(t1)
    3e9c:	0082b383          	ld	t2,8(t0)
    3ea0:	00833e03          	ld	t3,8(t1)
    3ea4:	01c2b423          	sd	t3,8(t0)
    3ea8:	00733423          	sd	t2,8(t1)
    3eac:	0102b383          	ld	t2,16(t0)
    3eb0:	01033e03          	ld	t3,16(t1)
    3eb4:	01c2b823          	sd	t3,16(t0)
    3eb8:	00733823          	sd	t2,16(t1)
    3ebc:	0182b383          	ld	t2,24(t0)
    3ec0:	01833e03          	ld	t3,24(t1)
    3ec4:	01c2bc23          	sd	t3,24(t0)
    3ec8:	00733c23          	sd	t2,24(t1)
    3ecc:	00400513          	li	a0,4
    3ed0:	930fc0ef          	jal	0 <evm_entry>
    3ed4:	00300513          	li	a0,3
    3ed8:	928fc0ef          	jal	0 <evm_entry>
    3edc:	fff98293          	addi	t0,s3,-1
    3ee0:	ffe98313          	addi	t1,s3,-2
    3ee4:	00529293          	slli	t0,t0,0x5
    3ee8:	00531313          	slli	t1,t1,0x5
    3eec:	005902b3          	add	t0,s2,t0
    3ef0:	00690333          	add	t1,s2,t1
    3ef4:	0002b383          	ld	t2,0(t0)
    3ef8:	00033e03          	ld	t3,0(t1)
    3efc:	01c2b023          	sd	t3,0(t0)
    3f00:	00733023          	sd	t2,0(t1)
    3f04:	0082b383          	ld	t2,8(t0)
    3f08:	00833e03          	ld	t3,8(t1)
    3f0c:	01c2b423          	sd	t3,8(t0)
    3f10:	00733423          	sd	t2,8(t1)
    3f14:	0102b383          	ld	t2,16(t0)
    3f18:	01033e03          	ld	t3,16(t1)
    3f1c:	01c2b823          	sd	t3,16(t0)
    3f20:	00733823          	sd	t2,16(t1)
    3f24:	0182b383          	ld	t2,24(t0)
    3f28:	01833e03          	ld	t3,24(t1)
    3f2c:	01c2bc23          	sd	t3,24(t0)
    3f30:	00733c23          	sd	t2,24(t1)
    3f34:	00200513          	li	a0,2
    3f38:	8c8fc0ef          	jal	0 <evm_entry>
    3f3c:	fff98993          	addi	s3,s3,-1
    3f40:	00800513          	li	a0,8
    3f44:	8bcfc0ef          	jal	0 <evm_entry>
    3f48:	fff98993          	addi	s3,s3,-1
    3f4c:	00599293          	slli	t0,s3,0x5
    3f50:	005902b3          	add	t0,s2,t0
    3f54:	0002b303          	ld	t1,0(t0)
    3f58:	00231313          	slli	t1,t1,0x2
    3f5c:	00000397          	auipc	t2,0x0
    3f60:	00038393          	mv	t2,t2
    3f64:	006383b3          	add	t2,t2,t1
    3f68:	0003ae03          	lw	t3,0(t2) # 3f5c <jumpdest_26+0x1f0>
    3f6c:	000e0067          	jr	t3
    3f70:	00300513          	li	a0,3
    3f74:	88cfc0ef          	jal	0 <evm_entry>

0000000000003f78 <jumpdest_27>:
    3f78:	00300513          	li	a0,3
    3f7c:	884fc0ef          	jal	0 <evm_entry>
    3f80:	00900513          	li	a0,9
    3f84:	87cfc0ef          	jal	0 <evm_entry>
    3f88:	00600513          	li	a0,6
    3f8c:	874fc0ef          	jal	0 <evm_entry>
    3f90:	00599313          	slli	t1,s3,0x5
    3f94:	00690333          	add	t1,s2,t1
    3f98:	16500293          	li	t0,357
    3f9c:	00533023          	sd	t0,0(t1)
    3fa0:	00000293          	li	t0,0
    3fa4:	00533423          	sd	t0,8(t1)
    3fa8:	00000293          	li	t0,0
    3fac:	00533823          	sd	t0,16(t1)
    3fb0:	00000293          	li	t0,0
    3fb4:	00533c23          	sd	t0,24(t1)
    3fb8:	00198993          	addi	s3,s3,1
    3fbc:	00500513          	li	a0,5
    3fc0:	840fc0ef          	jal	0 <evm_entry>
    3fc4:	ffe98293          	addi	t0,s3,-2
    3fc8:	00529293          	slli	t0,t0,0x5
    3fcc:	005902b3          	add	t0,s2,t0
    3fd0:	00599313          	slli	t1,s3,0x5
    3fd4:	00690333          	add	t1,s2,t1
    3fd8:	0002b383          	ld	t2,0(t0)
    3fdc:	0082be03          	ld	t3,8(t0)
    3fe0:	0102be83          	ld	t4,16(t0)
    3fe4:	0182bf03          	ld	t5,24(t0)
    3fe8:	00733023          	sd	t2,0(t1)
    3fec:	01c33423          	sd	t3,8(t1)
    3ff0:	01d33823          	sd	t4,16(t1)
    3ff4:	01e33c23          	sd	t5,24(t1)
    3ff8:	00198993          	addi	s3,s3,1
    3ffc:	00900513          	li	a0,9
    4000:	800fc0ef          	jal	0 <evm_entry>
    4004:	00600513          	li	a0,6
    4008:	ff9fb0ef          	jal	0 <evm_entry>
    400c:	00599313          	slli	t1,s3,0x5
    4010:	00690333          	add	t1,s2,t1
    4014:	15300293          	li	t0,339
    4018:	00533023          	sd	t0,0(t1)
    401c:	00000293          	li	t0,0
    4020:	00533423          	sd	t0,8(t1)
    4024:	00000293          	li	t0,0
    4028:	00533823          	sd	t0,16(t1)
    402c:	00000293          	li	t0,0
    4030:	00533c23          	sd	t0,24(t1)
    4034:	00198993          	addi	s3,s3,1
    4038:	00800513          	li	a0,8
    403c:	fc5fb0ef          	jal	0 <evm_entry>
    4040:	fff98993          	addi	s3,s3,-1
    4044:	00599293          	slli	t0,s3,0x5
    4048:	005902b3          	add	t0,s2,t0
    404c:	0002b303          	ld	t1,0(t0)
    4050:	00231313          	slli	t1,t1,0x2
    4054:	00000397          	auipc	t2,0x0
    4058:	00038393          	mv	t2,t2
    405c:	006383b3          	add	t2,t2,t1
    4060:	0003ae03          	lw	t3,0(t2) # 4054 <jumpdest_27+0xdc>
    4064:	000e0067          	jr	t3
    4068:	00300513          	li	a0,3
    406c:	f95fb0ef          	jal	0 <evm_entry>

0000000000004070 <jumpdest_28>:
    4070:	00300513          	li	a0,3
    4074:	f8dfb0ef          	jal	0 <evm_entry>
    4078:	00500513          	li	a0,5
    407c:	f85fb0ef          	jal	0 <evm_entry>
    4080:	ffe98293          	addi	t0,s3,-2
    4084:	00529293          	slli	t0,t0,0x5
    4088:	005902b3          	add	t0,s2,t0
    408c:	00599313          	slli	t1,s3,0x5
    4090:	00690333          	add	t1,s2,t1
    4094:	0002b383          	ld	t2,0(t0)
    4098:	0082be03          	ld	t3,8(t0)
    409c:	0102be83          	ld	t4,16(t0)
    40a0:	0182bf03          	ld	t5,24(t0)
    40a4:	00733023          	sd	t2,0(t1)
    40a8:	01c33423          	sd	t3,8(t1)
    40ac:	01d33823          	sd	t4,16(t1)
    40b0:	01e33c23          	sd	t5,24(t1)
    40b4:	00198993          	addi	s3,s3,1
    40b8:	00300513          	li	a0,3
    40bc:	f45fb0ef          	jal	0 <evm_entry>
    40c0:	ffe98993          	addi	s3,s3,-2
    40c4:	00599293          	slli	t0,s3,0x5
    40c8:	005902b3          	add	t0,s2,t0
    40cc:	0002b303          	ld	t1,0(t0)
    40d0:	0082b383          	ld	t2,8(t0)
    40d4:	0102be03          	ld	t3,16(t0)
    40d8:	0182be83          	ld	t4,24(t0)
    40dc:	0202bf03          	ld	t5,32(t0)
    40e0:	0282bf83          	ld	t6,40(t0)
    40e4:	0302b503          	ld	a0,48(t0)
    40e8:	0382b583          	ld	a1,56(t0)
    40ec:	01e34433          	xor	s0,t1,t5
    40f0:	01f3c4b3          	xor	s1,t2,t6
    40f4:	00ae4933          	xor	s2,t3,a0
    40f8:	00bec9b3          	xor	s3,t4,a1
    40fc:	00946433          	or	s0,s0,s1
    4100:	01246433          	or	s0,s0,s2
    4104:	01346433          	or	s0,s0,s3
    4108:	00143413          	seqz	s0,s0
    410c:	0082b023          	sd	s0,0(t0)
    4110:	0002b423          	sd	zero,8(t0)
    4114:	0002b823          	sd	zero,16(t0)
    4118:	0002bc23          	sd	zero,24(t0)
    411c:	00198993          	addi	s3,s3,1
    4120:	00900513          	li	a0,9
    4124:	eddfb0ef          	jal	0 <evm_entry>
    4128:	00600513          	li	a0,6
    412c:	ed5fb0ef          	jal	0 <evm_entry>
    4130:	00599313          	slli	t1,s3,0x5
    4134:	00690333          	add	t1,s2,t1
    4138:	16f00293          	li	t0,367
    413c:	00533023          	sd	t0,0(t1)
    4140:	00000293          	li	t0,0
    4144:	00533423          	sd	t0,8(t1)
    4148:	00000293          	li	t0,0
    414c:	00533823          	sd	t0,16(t1)
    4150:	00000293          	li	t0,0
    4154:	00533c23          	sd	t0,24(t1)
    4158:	00198993          	addi	s3,s3,1
    415c:	00a00513          	li	a0,10
    4160:	ea1fb0ef          	jal	0 <evm_entry>
    4164:	00a00513          	li	a0,10
    4168:	e99fb0ef          	jal	0 <evm_entry>
    416c:	ffe98993          	addi	s3,s3,-2
    4170:	00599293          	slli	t0,s3,0x5
    4174:	005902b3          	add	t0,s2,t0
    4178:	0002b303          	ld	t1,0(t0)
    417c:	0082b383          	ld	t2,8(t0)
    4180:	00038e63          	beqz	t2,419c <jumpi_skip_6>
    4184:	00231313          	slli	t1,t1,0x2
    4188:	00000e17          	auipc	t3,0x0
    418c:	000e0e13          	mv	t3,t3
    4190:	006e0e33          	add	t3,t3,t1
    4194:	000e2e83          	lw	t4,0(t3) # 4188 <jumpdest_28+0x118>
    4198:	000e8067          	jr	t4

000000000000419c <jumpi_skip_6>:
    419c:	00300513          	li	a0,3
    41a0:	e61fb0ef          	jal	0 <evm_entry>
    41a4:	00600513          	li	a0,6
    41a8:	e59fb0ef          	jal	0 <evm_entry>
    41ac:	00599313          	slli	t1,s3,0x5
    41b0:	00690333          	add	t1,s2,t1
    41b4:	00000293          	li	t0,0
    41b8:	00533023          	sd	t0,0(t1)
    41bc:	00000293          	li	t0,0
    41c0:	00533423          	sd	t0,8(t1)
    41c4:	00000293          	li	t0,0
    41c8:	00533823          	sd	t0,16(t1)
    41cc:	00000293          	li	t0,0
    41d0:	00533c23          	sd	t0,24(t1)
    41d4:	00198993          	addi	s3,s3,1
    41d8:	00400513          	li	a0,4
    41dc:	e25fb0ef          	jal	0 <evm_entry>
    41e0:	fff98293          	addi	t0,s3,-1
    41e4:	00529293          	slli	t0,t0,0x5
    41e8:	005902b3          	add	t0,s2,t0
    41ec:	00599313          	slli	t1,s3,0x5
    41f0:	00690333          	add	t1,s2,t1
    41f4:	0002b383          	ld	t2,0(t0)
    41f8:	0082be03          	ld	t3,8(t0)
    41fc:	0102be83          	ld	t4,16(t0)
    4200:	0182bf03          	ld	t5,24(t0)
    4204:	00733023          	sd	t2,0(t1)
    4208:	01c33423          	sd	t3,8(t1)
    420c:	01d33823          	sd	t4,16(t1)
    4210:	01e33c23          	sd	t5,24(t1)
    4214:	00198993          	addi	s3,s3,1
    4218:	00a00513          	li	a0,10
    421c:	de5fb0ef          	jal	0 <evm_entry>
    4220:	ffe98993          	addi	s3,s3,-2
    4224:	00599293          	slli	t0,s3,0x5
    4228:	005902b3          	add	t0,s2,t0
    422c:	0002b503          	ld	a0,0(t0)
    4230:	0082b583          	ld	a1,8(t0)
    4234:	00850533          	add	a0,a0,s0
    4238:	dc9fb0ef          	jal	0 <evm_entry>
    423c:	00300513          	li	a0,3
    4240:	dc1fb0ef          	jal	0 <evm_entry>

0000000000004244 <jumpdest_29>:
    4244:	00300513          	li	a0,3
    4248:	db9fb0ef          	jal	0 <evm_entry>
    424c:	00200513          	li	a0,2
    4250:	db1fb0ef          	jal	0 <evm_entry>
    4254:	fff98993          	addi	s3,s3,-1
    4258:	00800513          	li	a0,8
    425c:	da5fb0ef          	jal	0 <evm_entry>
    4260:	fff98993          	addi	s3,s3,-1
    4264:	00599293          	slli	t0,s3,0x5
    4268:	005902b3          	add	t0,s2,t0
    426c:	0002b303          	ld	t1,0(t0)
    4270:	00231313          	slli	t1,t1,0x2
    4274:	00000397          	auipc	t2,0x0
    4278:	00038393          	mv	t2,t2
    427c:	006383b3          	add	t2,t2,t1
    4280:	0003ae03          	lw	t3,0(t2) # 4274 <jumpdest_29+0x30>
    4284:	000e0067          	jr	t3
    4288:	00300513          	li	a0,3
    428c:	d75fb0ef          	jal	0 <evm_entry>

0000000000004290 <jumpdest_30>:
    4290:	00300513          	li	a0,3
    4294:	d6dfb0ef          	jal	0 <evm_entry>
    4298:	00300513          	li	a0,3
    429c:	d65fb0ef          	jal	0 <evm_entry>
    42a0:	00600513          	li	a0,6
    42a4:	d5dfb0ef          	jal	0 <evm_entry>
    42a8:	00599313          	slli	t1,s3,0x5
    42ac:	00690333          	add	t1,s2,t1
    42b0:	00000293          	li	t0,0
    42b4:	00533023          	sd	t0,0(t1)
    42b8:	00000293          	li	t0,0
    42bc:	00533423          	sd	t0,8(t1)
    42c0:	00000293          	li	t0,0
    42c4:	00533823          	sd	t0,16(t1)
    42c8:	00000293          	li	t0,0
    42cc:	00533c23          	sd	t0,24(t1)
    42d0:	00198993          	addi	s3,s3,1
    42d4:	00500513          	li	a0,5
    42d8:	d29fb0ef          	jal	0 <evm_entry>
    42dc:	ffe98293          	addi	t0,s3,-2
    42e0:	00529293          	slli	t0,t0,0x5
    42e4:	005902b3          	add	t0,s2,t0
    42e8:	00599313          	slli	t1,s3,0x5
    42ec:	00690333          	add	t1,s2,t1
    42f0:	0002b383          	ld	t2,0(t0)
    42f4:	0082be03          	ld	t3,8(t0)
    42f8:	0102be83          	ld	t4,16(t0)
    42fc:	0182bf03          	ld	t5,24(t0)
    4300:	00733023          	sd	t2,0(t1)
    4304:	01c33423          	sd	t3,8(t1)
    4308:	01d33823          	sd	t4,16(t1)
    430c:	01e33c23          	sd	t5,24(t1)
    4310:	00198993          	addi	s3,s3,1
    4314:	00300513          	li	a0,3
    4318:	ce9fb0ef          	jal	0 <evm_entry>
    431c:	00400513          	li	a0,4
    4320:	ce1fb0ef          	jal	0 <evm_entry>
    4324:	00300513          	li	a0,3
    4328:	cd9fb0ef          	jal	0 <evm_entry>
    432c:	fff98293          	addi	t0,s3,-1
    4330:	ffe98313          	addi	t1,s3,-2
    4334:	00529293          	slli	t0,t0,0x5
    4338:	00531313          	slli	t1,t1,0x5
    433c:	005902b3          	add	t0,s2,t0
    4340:	00690333          	add	t1,s2,t1
    4344:	0002b383          	ld	t2,0(t0)
    4348:	00033e03          	ld	t3,0(t1)
    434c:	01c2b023          	sd	t3,0(t0)
    4350:	00733023          	sd	t2,0(t1)
    4354:	0082b383          	ld	t2,8(t0)
    4358:	00833e03          	ld	t3,8(t1)
    435c:	01c2b423          	sd	t3,8(t0)
    4360:	00733423          	sd	t2,8(t1)
    4364:	0102b383          	ld	t2,16(t0)
    4368:	01033e03          	ld	t3,16(t1)
    436c:	01c2b823          	sd	t3,16(t0)
    4370:	00733823          	sd	t2,16(t1)
    4374:	0182b383          	ld	t2,24(t0)
    4378:	01833e03          	ld	t3,24(t1)
    437c:	01c2bc23          	sd	t3,24(t0)
    4380:	00733c23          	sd	t2,24(t1)
    4384:	00200513          	li	a0,2
    4388:	c79fb0ef          	jal	0 <evm_entry>
    438c:	fff98993          	addi	s3,s3,-1
    4390:	00900513          	li	a0,9
    4394:	c6dfb0ef          	jal	0 <evm_entry>
    4398:	00600513          	li	a0,6
    439c:	c65fb0ef          	jal	0 <evm_entry>
    43a0:	00599313          	slli	t1,s3,0x5
    43a4:	00690333          	add	t1,s2,t1
    43a8:	18000293          	li	t0,384
    43ac:	00533023          	sd	t0,0(t1)
    43b0:	00000293          	li	t0,0
    43b4:	00533423          	sd	t0,8(t1)
    43b8:	00000293          	li	t0,0
    43bc:	00533823          	sd	t0,16(t1)
    43c0:	00000293          	li	t0,0
    43c4:	00533c23          	sd	t0,24(t1)
    43c8:	00198993          	addi	s3,s3,1
    43cc:	00500513          	li	a0,5
    43d0:	c31fb0ef          	jal	0 <evm_entry>
    43d4:	ffe98293          	addi	t0,s3,-2
    43d8:	00529293          	slli	t0,t0,0x5
    43dc:	005902b3          	add	t0,s2,t0
    43e0:	00599313          	slli	t1,s3,0x5
    43e4:	00690333          	add	t1,s2,t1
    43e8:	0002b383          	ld	t2,0(t0)
    43ec:	0082be03          	ld	t3,8(t0)
    43f0:	0102be83          	ld	t4,16(t0)
    43f4:	0182bf03          	ld	t5,24(t0)
    43f8:	00733023          	sd	t2,0(t1)
    43fc:	01c33423          	sd	t3,8(t1)
    4400:	01d33823          	sd	t4,16(t1)
    4404:	01e33c23          	sd	t5,24(t1)
    4408:	00198993          	addi	s3,s3,1
    440c:	00900513          	li	a0,9
    4410:	bf1fb0ef          	jal	0 <evm_entry>
    4414:	00600513          	li	a0,6
    4418:	be9fb0ef          	jal	0 <evm_entry>
    441c:	00599313          	slli	t1,s3,0x5
    4420:	00690333          	add	t1,s2,t1
    4424:	15c00293          	li	t0,348
    4428:	00533023          	sd	t0,0(t1)
    442c:	00000293          	li	t0,0
    4430:	00533423          	sd	t0,8(t1)
    4434:	00000293          	li	t0,0
    4438:	00533823          	sd	t0,16(t1)
    443c:	00000293          	li	t0,0
    4440:	00533c23          	sd	t0,24(t1)
    4444:	00198993          	addi	s3,s3,1
    4448:	00800513          	li	a0,8
    444c:	bb5fb0ef          	jal	0 <evm_entry>
    4450:	fff98993          	addi	s3,s3,-1
    4454:	00599293          	slli	t0,s3,0x5
    4458:	005902b3          	add	t0,s2,t0
    445c:	0002b303          	ld	t1,0(t0)
    4460:	00231313          	slli	t1,t1,0x2
    4464:	00000397          	auipc	t2,0x0
    4468:	00038393          	mv	t2,t2
    446c:	006383b3          	add	t2,t2,t1
    4470:	0003ae03          	lw	t3,0(t2) # 4464 <jumpdest_30+0x1d4>
    4474:	000e0067          	jr	t3
    4478:	00300513          	li	a0,3
    447c:	b85fb0ef          	jal	0 <evm_entry>

0000000000004480 <jumpdest_31>:
    4480:	00300513          	li	a0,3
    4484:	b7dfb0ef          	jal	0 <evm_entry>
    4488:	00600513          	li	a0,6
    448c:	b75fb0ef          	jal	0 <evm_entry>
    4490:	00300513          	li	a0,3
    4494:	b6dfb0ef          	jal	0 <evm_entry>
    4498:	fff98293          	addi	t0,s3,-1
    449c:	ffc98313          	addi	t1,s3,-4
    44a0:	00529293          	slli	t0,t0,0x5
    44a4:	00531313          	slli	t1,t1,0x5
    44a8:	005902b3          	add	t0,s2,t0
    44ac:	00690333          	add	t1,s2,t1
    44b0:	0002b383          	ld	t2,0(t0)
    44b4:	00033e03          	ld	t3,0(t1)
    44b8:	01c2b023          	sd	t3,0(t0)
    44bc:	00733023          	sd	t2,0(t1)
    44c0:	0082b383          	ld	t2,8(t0)
    44c4:	00833e03          	ld	t3,8(t1)
    44c8:	01c2b423          	sd	t3,8(t0)
    44cc:	00733423          	sd	t2,8(t1)
    44d0:	0102b383          	ld	t2,16(t0)
    44d4:	01033e03          	ld	t3,16(t1)
    44d8:	01c2b823          	sd	t3,16(t0)
    44dc:	00733823          	sd	t2,16(t1)
    44e0:	0182b383          	ld	t2,24(t0)
    44e4:	01833e03          	ld	t3,24(t1)
    44e8:	01c2bc23          	sd	t3,24(t0)
    44ec:	00733c23          	sd	t2,24(t1)
    44f0:	00500513          	li	a0,5
    44f4:	b0dfb0ef          	jal	0 <evm_entry>
    44f8:	00300513          	li	a0,3
    44fc:	b05fb0ef          	jal	0 <evm_entry>
    4500:	fff98293          	addi	t0,s3,-1
    4504:	ffd98313          	addi	t1,s3,-3
    4508:	00529293          	slli	t0,t0,0x5
    450c:	00531313          	slli	t1,t1,0x5
    4510:	005902b3          	add	t0,s2,t0
    4514:	00690333          	add	t1,s2,t1
    4518:	0002b383          	ld	t2,0(t0)
    451c:	00033e03          	ld	t3,0(t1)
    4520:	01c2b023          	sd	t3,0(t0)
    4524:	00733023          	sd	t2,0(t1)
    4528:	0082b383          	ld	t2,8(t0)
    452c:	00833e03          	ld	t3,8(t1)
    4530:	01c2b423          	sd	t3,8(t0)
    4534:	00733423          	sd	t2,8(t1)
    4538:	0102b383          	ld	t2,16(t0)
    453c:	01033e03          	ld	t3,16(t1)
    4540:	01c2b823          	sd	t3,16(t0)
    4544:	00733823          	sd	t2,16(t1)
    4548:	0182b383          	ld	t2,24(t0)
    454c:	01833e03          	ld	t3,24(t1)
    4550:	01c2bc23          	sd	t3,24(t0)
    4554:	00733c23          	sd	t2,24(t1)
    4558:	00400513          	li	a0,4
    455c:	aa5fb0ef          	jal	0 <evm_entry>
    4560:	00300513          	li	a0,3
    4564:	a9dfb0ef          	jal	0 <evm_entry>
    4568:	fff98293          	addi	t0,s3,-1
    456c:	ffe98313          	addi	t1,s3,-2
    4570:	00529293          	slli	t0,t0,0x5
    4574:	00531313          	slli	t1,t1,0x5
    4578:	005902b3          	add	t0,s2,t0
    457c:	00690333          	add	t1,s2,t1
    4580:	0002b383          	ld	t2,0(t0)
    4584:	00033e03          	ld	t3,0(t1)
    4588:	01c2b023          	sd	t3,0(t0)
    458c:	00733023          	sd	t2,0(t1)
    4590:	0082b383          	ld	t2,8(t0)
    4594:	00833e03          	ld	t3,8(t1)
    4598:	01c2b423          	sd	t3,8(t0)
    459c:	00733423          	sd	t2,8(t1)
    45a0:	0102b383          	ld	t2,16(t0)
    45a4:	01033e03          	ld	t3,16(t1)
    45a8:	01c2b823          	sd	t3,16(t0)
    45ac:	00733823          	sd	t2,16(t1)
    45b0:	0182b383          	ld	t2,24(t0)
    45b4:	01833e03          	ld	t3,24(t1)
    45b8:	01c2bc23          	sd	t3,24(t0)
    45bc:	00733c23          	sd	t2,24(t1)
    45c0:	00200513          	li	a0,2
    45c4:	a3dfb0ef          	jal	0 <evm_entry>
    45c8:	fff98993          	addi	s3,s3,-1
    45cc:	00800513          	li	a0,8
    45d0:	a31fb0ef          	jal	0 <evm_entry>
    45d4:	fff98993          	addi	s3,s3,-1
    45d8:	00599293          	slli	t0,s3,0x5
    45dc:	005902b3          	add	t0,s2,t0
    45e0:	0002b303          	ld	t1,0(t0)
    45e4:	00231313          	slli	t1,t1,0x2
    45e8:	00000397          	auipc	t2,0x0
    45ec:	00038393          	mv	t2,t2
    45f0:	006383b3          	add	t2,t2,t1
    45f4:	0003ae03          	lw	t3,0(t2) # 45e8 <jumpdest_31+0x168>
    45f8:	000e0067          	jr	t3
    45fc:	00300513          	li	a0,3
    4600:	a01fb0ef          	jal	0 <evm_entry>

0000000000004604 <jumpdest_32>:
    4604:	00300513          	li	a0,3
    4608:	9f9fb0ef          	jal	0 <evm_entry>
    460c:	00300513          	li	a0,3
    4610:	9f1fb0ef          	jal	0 <evm_entry>
    4614:	00600513          	li	a0,6
    4618:	9e9fb0ef          	jal	0 <evm_entry>
    461c:	00599313          	slli	t1,s3,0x5
    4620:	00690333          	add	t1,s2,t1
    4624:	00000293          	li	t0,0
    4628:	00533023          	sd	t0,0(t1)
    462c:	00000293          	li	t0,0
    4630:	00533423          	sd	t0,8(t1)
    4634:	00000293          	li	t0,0
    4638:	00533823          	sd	t0,16(t1)
    463c:	00000293          	li	t0,0
    4640:	00533c23          	sd	t0,24(t1)
    4644:	00198993          	addi	s3,s3,1
    4648:	00600513          	li	a0,6
    464c:	9b5fb0ef          	jal	0 <evm_entry>
    4650:	00600513          	li	a0,6
    4654:	9adfb0ef          	jal	0 <evm_entry>
    4658:	00599313          	slli	t1,s3,0x5
    465c:	00690333          	add	t1,s2,t1
    4660:	02000293          	li	t0,32
    4664:	00533023          	sd	t0,0(t1)
    4668:	00000293          	li	t0,0
    466c:	00533423          	sd	t0,8(t1)
    4670:	00000293          	li	t0,0
    4674:	00533823          	sd	t0,16(t1)
    4678:	00000293          	li	t0,0
    467c:	00533c23          	sd	t0,24(t1)
    4680:	00198993          	addi	s3,s3,1
    4684:	00600513          	li	a0,6
    4688:	979fb0ef          	jal	0 <evm_entry>
    468c:	ffd98293          	addi	t0,s3,-3
    4690:	00529293          	slli	t0,t0,0x5
    4694:	005902b3          	add	t0,s2,t0
    4698:	00599313          	slli	t1,s3,0x5
    469c:	00690333          	add	t1,s2,t1
    46a0:	0002b383          	ld	t2,0(t0)
    46a4:	0082be03          	ld	t3,8(t0)
    46a8:	0102be83          	ld	t4,16(t0)
    46ac:	0182bf03          	ld	t5,24(t0)
    46b0:	00733023          	sd	t2,0(t1)
    46b4:	01c33423          	sd	t3,8(t1)
    46b8:	01d33823          	sd	t4,16(t1)
    46bc:	01e33c23          	sd	t5,24(t1)
    46c0:	00198993          	addi	s3,s3,1
    46c4:	00800513          	li	a0,8
    46c8:	939fb0ef          	jal	0 <evm_entry>
    46cc:	ffb98293          	addi	t0,s3,-5
    46d0:	00529293          	slli	t0,t0,0x5
    46d4:	005902b3          	add	t0,s2,t0
    46d8:	00599313          	slli	t1,s3,0x5
    46dc:	00690333          	add	t1,s2,t1
    46e0:	0002b383          	ld	t2,0(t0)
    46e4:	0082be03          	ld	t3,8(t0)
    46e8:	0102be83          	ld	t4,16(t0)
    46ec:	0182bf03          	ld	t5,24(t0)
    46f0:	00733023          	sd	t2,0(t1)
    46f4:	01c33423          	sd	t3,8(t1)
    46f8:	01d33823          	sd	t4,16(t1)
    46fc:	01e33c23          	sd	t5,24(t1)
    4700:	00198993          	addi	s3,s3,1
    4704:	00300513          	li	a0,3
    4708:	8f9fb0ef          	jal	0 <evm_entry>
    470c:	ffe98993          	addi	s3,s3,-2
    4710:	00599293          	slli	t0,s3,0x5
    4714:	005902b3          	add	t0,s2,t0
    4718:	0002b303          	ld	t1,0(t0)
    471c:	0082b383          	ld	t2,8(t0)
    4720:	0102be03          	ld	t3,16(t0)
    4724:	0182be83          	ld	t4,24(t0)
    4728:	0202bf03          	ld	t5,32(t0)
    472c:	0282bf83          	ld	t6,40(t0)
    4730:	0302b503          	ld	a0,48(t0)
    4734:	0382b583          	ld	a1,56(t0)
    4738:	406f0a33          	sub	s4,t5,t1
    473c:	006f3ab3          	sltu	s5,t5,t1
    4740:	407f8b33          	sub	s6,t6,t2
    4744:	415b0b33          	sub	s6,s6,s5
    4748:	007fbab3          	sltu	s5,t6,t2
    474c:	015b3633          	sltu	a2,s6,s5
    4750:	00caeab3          	or	s5,s5,a2
    4754:	41c50d33          	sub	s10,a0,t3
    4758:	415d0d33          	sub	s10,s10,s5
    475c:	01c53ab3          	sltu	s5,a0,t3
    4760:	015d3633          	sltu	a2,s10,s5
    4764:	00caeab3          	or	s5,s5,a2
    4768:	41d58db3          	sub	s11,a1,t4
    476c:	415d8db3          	sub	s11,s11,s5
    4770:	0142b023          	sd	s4,0(t0)
    4774:	0162b423          	sd	s6,8(t0)
    4778:	01a2b823          	sd	s10,16(t0)
    477c:	01b2bc23          	sd	s11,24(t0)
    4780:	00198993          	addi	s3,s3,1
    4784:	00300513          	li	a0,3
    4788:	879fb0ef          	jal	0 <evm_entry>
    478c:	fff98993          	addi	s3,s3,-1
    4790:	00300513          	li	a0,3
    4794:	86dfb0ef          	jal	0 <evm_entry>
    4798:	fff98993          	addi	s3,s3,-1
    479c:	00599293          	slli	t0,s3,0x5
    47a0:	005902b3          	add	t0,s2,t0
    47a4:	0002b303          	ld	t1,0(t0)
    47a8:	0082b383          	ld	t2,8(t0)
    47ac:	0102be03          	ld	t3,16(t0)
    47b0:	0182be83          	ld	t4,24(t0)
    47b4:	00736433          	or	s0,t1,t2
    47b8:	01c46433          	or	s0,s0,t3
    47bc:	01d46433          	or	s0,s0,t4
    47c0:	00143413          	seqz	s0,s0
    47c4:	0082b023          	sd	s0,0(t0)
    47c8:	0002b423          	sd	zero,8(t0)
    47cc:	0002b823          	sd	zero,16(t0)
    47d0:	0002bc23          	sd	zero,24(t0)
    47d4:	00198993          	addi	s3,s3,1
    47d8:	00900513          	li	a0,9
    47dc:	825fb0ef          	jal	0 <evm_entry>
    47e0:	00600513          	li	a0,6
    47e4:	81dfb0ef          	jal	0 <evm_entry>
    47e8:	00599313          	slli	t1,s3,0x5
    47ec:	00690333          	add	t1,s2,t1
    47f0:	19b00293          	li	t0,411
    47f4:	00533023          	sd	t0,0(t1)
    47f8:	00000293          	li	t0,0
    47fc:	00533423          	sd	t0,8(t1)
    4800:	00000293          	li	t0,0
    4804:	00533823          	sd	t0,16(t1)
    4808:	00000293          	li	t0,0
    480c:	00533c23          	sd	t0,24(t1)
    4810:	00198993          	addi	s3,s3,1
    4814:	00a00513          	li	a0,10
    4818:	fe8fb0ef          	jal	0 <evm_entry>
    481c:	00a00513          	li	a0,10
    4820:	fe0fb0ef          	jal	0 <evm_entry>
    4824:	ffe98993          	addi	s3,s3,-2
    4828:	00599293          	slli	t0,s3,0x5
    482c:	005902b3          	add	t0,s2,t0
    4830:	0002b303          	ld	t1,0(t0)
    4834:	0082b383          	ld	t2,8(t0)
    4838:	00038e63          	beqz	t2,4854 <jumpi_skip_7>
    483c:	00231313          	slli	t1,t1,0x2
    4840:	00000e17          	auipc	t3,0x0
    4844:	000e0e13          	mv	t3,t3
    4848:	006e0e33          	add	t3,t3,t1
    484c:	000e2e83          	lw	t4,0(t3) # 4840 <jumpdest_32+0x23c>
    4850:	000e8067          	jr	t4

0000000000004854 <jumpi_skip_7>:
    4854:	00900513          	li	a0,9
    4858:	fa8fb0ef          	jal	0 <evm_entry>
    485c:	00600513          	li	a0,6
    4860:	fa0fb0ef          	jal	0 <evm_entry>
    4864:	00599313          	slli	t1,s3,0x5
    4868:	00690333          	add	t1,s2,t1
    486c:	19a00293          	li	t0,410
    4870:	00533023          	sd	t0,0(t1)
    4874:	00000293          	li	t0,0
    4878:	00533423          	sd	t0,8(t1)
    487c:	00000293          	li	t0,0
    4880:	00533823          	sd	t0,16(t1)
    4884:	00000293          	li	t0,0
    4888:	00533c23          	sd	t0,24(t1)
    488c:	00198993          	addi	s3,s3,1
    4890:	00900513          	li	a0,9
    4894:	f6cfb0ef          	jal	0 <evm_entry>
    4898:	00600513          	li	a0,6
    489c:	f64fb0ef          	jal	0 <evm_entry>
    48a0:	00599313          	slli	t1,s3,0x5
    48a4:	00690333          	add	t1,s2,t1
    48a8:	14f00293          	li	t0,335
    48ac:	00533023          	sd	t0,0(t1)
    48b0:	00000293          	li	t0,0
    48b4:	00533423          	sd	t0,8(t1)
    48b8:	00000293          	li	t0,0
    48bc:	00533823          	sd	t0,16(t1)
    48c0:	00000293          	li	t0,0
    48c4:	00533c23          	sd	t0,24(t1)
    48c8:	00198993          	addi	s3,s3,1
    48cc:	00800513          	li	a0,8
    48d0:	f30fb0ef          	jal	0 <evm_entry>
    48d4:	fff98993          	addi	s3,s3,-1
    48d8:	00599293          	slli	t0,s3,0x5
    48dc:	005902b3          	add	t0,s2,t0
    48e0:	0002b303          	ld	t1,0(t0)
    48e4:	00231313          	slli	t1,t1,0x2
    48e8:	00000397          	auipc	t2,0x0
    48ec:	00038393          	mv	t2,t2
    48f0:	006383b3          	add	t2,t2,t1
    48f4:	0003ae03          	lw	t3,0(t2) # 48e8 <jumpi_skip_7+0x94>
    48f8:	000e0067          	jr	t3
    48fc:	00300513          	li	a0,3
    4900:	f00fb0ef          	jal	0 <evm_entry>

0000000000004904 <jumpdest_33>:
    4904:	00300513          	li	a0,3
    4908:	ef8fb0ef          	jal	0 <evm_entry>
    490c:	00300513          	li	a0,3
    4910:	ef0fb0ef          	jal	0 <evm_entry>

0000000000004914 <jumpdest_34>:
    4914:	00300513          	li	a0,3
    4918:	ee8fb0ef          	jal	0 <evm_entry>
    491c:	00300513          	li	a0,3
    4920:	ee0fb0ef          	jal	0 <evm_entry>
    4924:	00600513          	li	a0,6
    4928:	ed8fb0ef          	jal	0 <evm_entry>
    492c:	00599313          	slli	t1,s3,0x5
    4930:	00690333          	add	t1,s2,t1
    4934:	00000293          	li	t0,0
    4938:	00533023          	sd	t0,0(t1)
    493c:	00000293          	li	t0,0
    4940:	00533423          	sd	t0,8(t1)
    4944:	00000293          	li	t0,0
    4948:	00533823          	sd	t0,16(t1)
    494c:	00000293          	li	t0,0
    4950:	00533c23          	sd	t0,24(t1)
    4954:	00198993          	addi	s3,s3,1
    4958:	00900513          	li	a0,9
    495c:	ea4fb0ef          	jal	0 <evm_entry>
    4960:	00600513          	li	a0,6
    4964:	e9cfb0ef          	jal	0 <evm_entry>
    4968:	00599313          	slli	t1,s3,0x5
    496c:	00690333          	add	t1,s2,t1
    4970:	1a800293          	li	t0,424
    4974:	00533023          	sd	t0,0(t1)
    4978:	00000293          	li	t0,0
    497c:	00533423          	sd	t0,8(t1)
    4980:	00000293          	li	t0,0
    4984:	00533823          	sd	t0,16(t1)
    4988:	00000293          	li	t0,0
    498c:	00533c23          	sd	t0,24(t1)
    4990:	00198993          	addi	s3,s3,1
    4994:	00800513          	li	a0,8
    4998:	e68fb0ef          	jal	0 <evm_entry>
    499c:	ffb98293          	addi	t0,s3,-5
    49a0:	00529293          	slli	t0,t0,0x5
    49a4:	005902b3          	add	t0,s2,t0
    49a8:	00599313          	slli	t1,s3,0x5
    49ac:	00690333          	add	t1,s2,t1
    49b0:	0002b383          	ld	t2,0(t0)
    49b4:	0082be03          	ld	t3,8(t0)
    49b8:	0102be83          	ld	t4,16(t0)
    49bc:	0182bf03          	ld	t5,24(t0)
    49c0:	00733023          	sd	t2,0(t1)
    49c4:	01c33423          	sd	t3,8(t1)
    49c8:	01d33823          	sd	t4,16(t1)
    49cc:	01e33c23          	sd	t5,24(t1)
    49d0:	00198993          	addi	s3,s3,1
    49d4:	00600513          	li	a0,6
    49d8:	e28fb0ef          	jal	0 <evm_entry>
    49dc:	ffd98293          	addi	t0,s3,-3
    49e0:	00529293          	slli	t0,t0,0x5
    49e4:	005902b3          	add	t0,s2,t0
    49e8:	00599313          	slli	t1,s3,0x5
    49ec:	00690333          	add	t1,s2,t1
    49f0:	0002b383          	ld	t2,0(t0)
    49f4:	0082be03          	ld	t3,8(t0)
    49f8:	0102be83          	ld	t4,16(t0)
    49fc:	0182bf03          	ld	t5,24(t0)
    4a00:	00733023          	sd	t2,0(t1)
    4a04:	01c33423          	sd	t3,8(t1)
    4a08:	01d33823          	sd	t4,16(t1)
    4a0c:	01e33c23          	sd	t5,24(t1)
    4a10:	00198993          	addi	s3,s3,1
    4a14:	00900513          	li	a0,9
    4a18:	de8fb0ef          	jal	0 <evm_entry>
    4a1c:	ffa98293          	addi	t0,s3,-6
    4a20:	00529293          	slli	t0,t0,0x5
    4a24:	005902b3          	add	t0,s2,t0
    4a28:	00599313          	slli	t1,s3,0x5
    4a2c:	00690333          	add	t1,s2,t1
    4a30:	0002b383          	ld	t2,0(t0)
    4a34:	0082be03          	ld	t3,8(t0)
    4a38:	0102be83          	ld	t4,16(t0)
    4a3c:	0182bf03          	ld	t5,24(t0)
    4a40:	00733023          	sd	t2,0(t1)
    4a44:	01c33423          	sd	t3,8(t1)
    4a48:	01d33823          	sd	t4,16(t1)
    4a4c:	01e33c23          	sd	t5,24(t1)
    4a50:	00198993          	addi	s3,s3,1
    4a54:	00300513          	li	a0,3
    4a58:	da8fb0ef          	jal	0 <evm_entry>
    4a5c:	ffe98993          	addi	s3,s3,-2
    4a60:	00599293          	slli	t0,s3,0x5
    4a64:	005902b3          	add	t0,s2,t0
    4a68:	0002b303          	ld	t1,0(t0)
    4a6c:	0082b383          	ld	t2,8(t0)
    4a70:	0102be03          	ld	t3,16(t0)
    4a74:	0182be83          	ld	t4,24(t0)
    4a78:	0202bf03          	ld	t5,32(t0)
    4a7c:	0282bf83          	ld	t6,40(t0)
    4a80:	0302b503          	ld	a0,48(t0)
    4a84:	0382b583          	ld	a1,56(t0)
    4a88:	01e30a33          	add	s4,t1,t5
    4a8c:	006a3ab3          	sltu	s5,s4,t1
    4a90:	01f38b33          	add	s6,t2,t6
    4a94:	015b0b33          	add	s6,s6,s5
    4a98:	007b3ab3          	sltu	s5,s6,t2
    4a9c:	00ae0d33          	add	s10,t3,a0
    4aa0:	015d0d33          	add	s10,s10,s5
    4aa4:	01cd3ab3          	sltu	s5,s10,t3
    4aa8:	00be8db3          	add	s11,t4,a1
    4aac:	015d8db3          	add	s11,s11,s5
    4ab0:	0142b023          	sd	s4,0(t0)
    4ab4:	0162b423          	sd	s6,8(t0)
    4ab8:	01a2b823          	sd	s10,16(t0)
    4abc:	01b2bc23          	sd	s11,24(t0)
    4ac0:	00198993          	addi	s3,s3,1
    4ac4:	00900513          	li	a0,9
    4ac8:	d38fb0ef          	jal	0 <evm_entry>
    4acc:	00600513          	li	a0,6
    4ad0:	d30fb0ef          	jal	0 <evm_entry>
    4ad4:	00599313          	slli	t1,s3,0x5
    4ad8:	00690333          	add	t1,s2,t1
    4adc:	17200293          	li	t0,370
    4ae0:	00533023          	sd	t0,0(t1)
    4ae4:	00000293          	li	t0,0
    4ae8:	00533423          	sd	t0,8(t1)
    4aec:	00000293          	li	t0,0
    4af0:	00533823          	sd	t0,16(t1)
    4af4:	00000293          	li	t0,0
    4af8:	00533c23          	sd	t0,24(t1)
    4afc:	00198993          	addi	s3,s3,1
    4b00:	00800513          	li	a0,8
    4b04:	cfcfb0ef          	jal	0 <evm_entry>
    4b08:	fff98993          	addi	s3,s3,-1
    4b0c:	00599293          	slli	t0,s3,0x5
    4b10:	005902b3          	add	t0,s2,t0
    4b14:	0002b303          	ld	t1,0(t0)
    4b18:	00231313          	slli	t1,t1,0x2
    4b1c:	00000397          	auipc	t2,0x0
    4b20:	00038393          	mv	t2,t2
    4b24:	006383b3          	add	t2,t2,t1
    4b28:	0003ae03          	lw	t3,0(t2) # 4b1c <jumpdest_34+0x208>
    4b2c:	000e0067          	jr	t3
    4b30:	00300513          	li	a0,3
    4b34:	cccfb0ef          	jal	0 <evm_entry>

0000000000004b38 <jumpdest_35>:
    4b38:	00300513          	li	a0,3
    4b3c:	cc4fb0ef          	jal	0 <evm_entry>
    4b40:	00500513          	li	a0,5
    4b44:	cbcfb0ef          	jal	0 <evm_entry>
    4b48:	00300513          	li	a0,3
    4b4c:	cb4fb0ef          	jal	0 <evm_entry>
    4b50:	fff98293          	addi	t0,s3,-1
    4b54:	ffd98313          	addi	t1,s3,-3
    4b58:	00529293          	slli	t0,t0,0x5
    4b5c:	00531313          	slli	t1,t1,0x5
    4b60:	005902b3          	add	t0,s2,t0
    4b64:	00690333          	add	t1,s2,t1
    4b68:	0002b383          	ld	t2,0(t0)
    4b6c:	00033e03          	ld	t3,0(t1)
    4b70:	01c2b023          	sd	t3,0(t0)
    4b74:	00733023          	sd	t2,0(t1)
    4b78:	0082b383          	ld	t2,8(t0)
    4b7c:	00833e03          	ld	t3,8(t1)
    4b80:	01c2b423          	sd	t3,8(t0)
    4b84:	00733423          	sd	t2,8(t1)
    4b88:	0102b383          	ld	t2,16(t0)
    4b8c:	01033e03          	ld	t3,16(t1)
    4b90:	01c2b823          	sd	t3,16(t0)
    4b94:	00733823          	sd	t2,16(t1)
    4b98:	0182b383          	ld	t2,24(t0)
    4b9c:	01833e03          	ld	t3,24(t1)
    4ba0:	01c2bc23          	sd	t3,24(t0)
    4ba4:	00733c23          	sd	t2,24(t1)
    4ba8:	00400513          	li	a0,4
    4bac:	c54fb0ef          	jal	0 <evm_entry>
    4bb0:	00300513          	li	a0,3
    4bb4:	c4cfb0ef          	jal	0 <evm_entry>
    4bb8:	fff98293          	addi	t0,s3,-1
    4bbc:	ffe98313          	addi	t1,s3,-2
    4bc0:	00529293          	slli	t0,t0,0x5
    4bc4:	00531313          	slli	t1,t1,0x5
    4bc8:	005902b3          	add	t0,s2,t0
    4bcc:	00690333          	add	t1,s2,t1
    4bd0:	0002b383          	ld	t2,0(t0)
    4bd4:	00033e03          	ld	t3,0(t1)
    4bd8:	01c2b023          	sd	t3,0(t0)
    4bdc:	00733023          	sd	t2,0(t1)
    4be0:	0082b383          	ld	t2,8(t0)
    4be4:	00833e03          	ld	t3,8(t1)
    4be8:	01c2b423          	sd	t3,8(t0)
    4bec:	00733423          	sd	t2,8(t1)
    4bf0:	0102b383          	ld	t2,16(t0)
    4bf4:	01033e03          	ld	t3,16(t1)
    4bf8:	01c2b823          	sd	t3,16(t0)
    4bfc:	00733823          	sd	t2,16(t1)
    4c00:	0182b383          	ld	t2,24(t0)
    4c04:	01833e03          	ld	t3,24(t1)
    4c08:	01c2bc23          	sd	t3,24(t0)
    4c0c:	00733c23          	sd	t2,24(t1)
    4c10:	00200513          	li	a0,2
    4c14:	becfb0ef          	jal	0 <evm_entry>
    4c18:	fff98993          	addi	s3,s3,-1
    4c1c:	00600513          	li	a0,6
    4c20:	be0fb0ef          	jal	0 <evm_entry>
    4c24:	00300513          	li	a0,3
    4c28:	bd8fb0ef          	jal	0 <evm_entry>
    4c2c:	fff98293          	addi	t0,s3,-1
    4c30:	ffc98313          	addi	t1,s3,-4
    4c34:	00529293          	slli	t0,t0,0x5
    4c38:	00531313          	slli	t1,t1,0x5
    4c3c:	005902b3          	add	t0,s2,t0
    4c40:	00690333          	add	t1,s2,t1
    4c44:	0002b383          	ld	t2,0(t0)
    4c48:	00033e03          	ld	t3,0(t1)
    4c4c:	01c2b023          	sd	t3,0(t0)
    4c50:	00733023          	sd	t2,0(t1)
    4c54:	0082b383          	ld	t2,8(t0)
    4c58:	00833e03          	ld	t3,8(t1)
    4c5c:	01c2b423          	sd	t3,8(t0)
    4c60:	00733423          	sd	t2,8(t1)
    4c64:	0102b383          	ld	t2,16(t0)
    4c68:	01033e03          	ld	t3,16(t1)
    4c6c:	01c2b823          	sd	t3,16(t0)
    4c70:	00733823          	sd	t2,16(t1)
    4c74:	0182b383          	ld	t2,24(t0)
    4c78:	01833e03          	ld	t3,24(t1)
    4c7c:	01c2bc23          	sd	t3,24(t0)
    4c80:	00733c23          	sd	t2,24(t1)
    4c84:	00500513          	li	a0,5
    4c88:	b78fb0ef          	jal	0 <evm_entry>
    4c8c:	00300513          	li	a0,3
    4c90:	b70fb0ef          	jal	0 <evm_entry>
    4c94:	fff98293          	addi	t0,s3,-1
    4c98:	ffd98313          	addi	t1,s3,-3
    4c9c:	00529293          	slli	t0,t0,0x5
    4ca0:	00531313          	slli	t1,t1,0x5
    4ca4:	005902b3          	add	t0,s2,t0
    4ca8:	00690333          	add	t1,s2,t1
    4cac:	0002b383          	ld	t2,0(t0)
    4cb0:	00033e03          	ld	t3,0(t1)
    4cb4:	01c2b023          	sd	t3,0(t0)
    4cb8:	00733023          	sd	t2,0(t1)
    4cbc:	0082b383          	ld	t2,8(t0)
    4cc0:	00833e03          	ld	t3,8(t1)
    4cc4:	01c2b423          	sd	t3,8(t0)
    4cc8:	00733423          	sd	t2,8(t1)
    4ccc:	0102b383          	ld	t2,16(t0)
    4cd0:	01033e03          	ld	t3,16(t1)
    4cd4:	01c2b823          	sd	t3,16(t0)
    4cd8:	00733823          	sd	t2,16(t1)
    4cdc:	0182b383          	ld	t2,24(t0)
    4ce0:	01833e03          	ld	t3,24(t1)
    4ce4:	01c2bc23          	sd	t3,24(t0)
    4ce8:	00733c23          	sd	t2,24(t1)
    4cec:	00400513          	li	a0,4
    4cf0:	b10fb0ef          	jal	0 <evm_entry>
    4cf4:	00300513          	li	a0,3
    4cf8:	b08fb0ef          	jal	0 <evm_entry>
    4cfc:	fff98293          	addi	t0,s3,-1
    4d00:	ffe98313          	addi	t1,s3,-2
    4d04:	00529293          	slli	t0,t0,0x5
    4d08:	00531313          	slli	t1,t1,0x5
    4d0c:	005902b3          	add	t0,s2,t0
    4d10:	00690333          	add	t1,s2,t1
    4d14:	0002b383          	ld	t2,0(t0)
    4d18:	00033e03          	ld	t3,0(t1)
    4d1c:	01c2b023          	sd	t3,0(t0)
    4d20:	00733023          	sd	t2,0(t1)
    4d24:	0082b383          	ld	t2,8(t0)
    4d28:	00833e03          	ld	t3,8(t1)
    4d2c:	01c2b423          	sd	t3,8(t0)
    4d30:	00733423          	sd	t2,8(t1)
    4d34:	0102b383          	ld	t2,16(t0)
    4d38:	01033e03          	ld	t3,16(t1)
    4d3c:	01c2b823          	sd	t3,16(t0)
    4d40:	00733823          	sd	t2,16(t1)
    4d44:	0182b383          	ld	t2,24(t0)
    4d48:	01833e03          	ld	t3,24(t1)
    4d4c:	01c2bc23          	sd	t3,24(t0)
    4d50:	00733c23          	sd	t2,24(t1)
    4d54:	00200513          	li	a0,2
    4d58:	aa8fb0ef          	jal	0 <evm_entry>
    4d5c:	fff98993          	addi	s3,s3,-1
    4d60:	00800513          	li	a0,8
    4d64:	a9cfb0ef          	jal	0 <evm_entry>
    4d68:	fff98993          	addi	s3,s3,-1
    4d6c:	00599293          	slli	t0,s3,0x5
    4d70:	005902b3          	add	t0,s2,t0
    4d74:	0002b303          	ld	t1,0(t0)
    4d78:	00231313          	slli	t1,t1,0x2
    4d7c:	00000397          	auipc	t2,0x0
    4d80:	00038393          	mv	t2,t2
    4d84:	006383b3          	add	t2,t2,t1
    4d88:	0003ae03          	lw	t3,0(t2) # 4d7c <jumpdest_35+0x244>
    4d8c:	000e0067          	jr	t3
    4d90:	00300513          	li	a0,3
    4d94:	a6cfb0ef          	jal	0 <evm_entry>

0000000000004d98 <jumpdest_36>:
    4d98:	00300513          	li	a0,3
    4d9c:	a64fb0ef          	jal	0 <evm_entry>
    4da0:	00900513          	li	a0,9
    4da4:	a5cfb0ef          	jal	0 <evm_entry>
    4da8:	00600513          	li	a0,6
    4dac:	a54fb0ef          	jal	0 <evm_entry>
    4db0:	00599313          	slli	t1,s3,0x5
    4db4:	00690333          	add	t1,s2,t1
    4db8:	1ba00293          	li	t0,442
    4dbc:	00533023          	sd	t0,0(t1)
    4dc0:	00000293          	li	t0,0
    4dc4:	00533423          	sd	t0,8(t1)
    4dc8:	00000293          	li	t0,0
    4dcc:	00533823          	sd	t0,16(t1)
    4dd0:	00000293          	li	t0,0
    4dd4:	00533c23          	sd	t0,24(t1)
    4dd8:	00198993          	addi	s3,s3,1
    4ddc:	00500513          	li	a0,5
    4de0:	a20fb0ef          	jal	0 <evm_entry>
    4de4:	ffe98293          	addi	t0,s3,-2
    4de8:	00529293          	slli	t0,t0,0x5
    4dec:	005902b3          	add	t0,s2,t0
    4df0:	00599313          	slli	t1,s3,0x5
    4df4:	00690333          	add	t1,s2,t1
    4df8:	0002b383          	ld	t2,0(t0)
    4dfc:	0082be03          	ld	t3,8(t0)
    4e00:	0102be83          	ld	t4,16(t0)
    4e04:	0182bf03          	ld	t5,24(t0)
    4e08:	00733023          	sd	t2,0(t1)
    4e0c:	01c33423          	sd	t3,8(t1)
    4e10:	01d33823          	sd	t4,16(t1)
    4e14:	01e33c23          	sd	t5,24(t1)
    4e18:	00198993          	addi	s3,s3,1
    4e1c:	00900513          	li	a0,9
    4e20:	9e0fb0ef          	jal	0 <evm_entry>
    4e24:	00600513          	li	a0,6
    4e28:	9d8fb0ef          	jal	0 <evm_entry>
    4e2c:	00599313          	slli	t1,s3,0x5
    4e30:	00690333          	add	t1,s2,t1
    4e34:	15300293          	li	t0,339
    4e38:	00533023          	sd	t0,0(t1)
    4e3c:	00000293          	li	t0,0
    4e40:	00533423          	sd	t0,8(t1)
    4e44:	00000293          	li	t0,0
    4e48:	00533823          	sd	t0,16(t1)
    4e4c:	00000293          	li	t0,0
    4e50:	00533c23          	sd	t0,24(t1)
    4e54:	00198993          	addi	s3,s3,1
    4e58:	00800513          	li	a0,8
    4e5c:	9a4fb0ef          	jal	0 <evm_entry>
    4e60:	fff98993          	addi	s3,s3,-1
    4e64:	00599293          	slli	t0,s3,0x5
    4e68:	005902b3          	add	t0,s2,t0
    4e6c:	0002b303          	ld	t1,0(t0)
    4e70:	00231313          	slli	t1,t1,0x2
    4e74:	00000397          	auipc	t2,0x0
    4e78:	00038393          	mv	t2,t2
    4e7c:	006383b3          	add	t2,t2,t1
    4e80:	0003ae03          	lw	t3,0(t2) # 4e74 <jumpdest_36+0xdc>
    4e84:	000e0067          	jr	t3
    4e88:	00300513          	li	a0,3
    4e8c:	974fb0ef          	jal	0 <evm_entry>

0000000000004e90 <jumpdest_37>:
    4e90:	00300513          	li	a0,3
    4e94:	96cfb0ef          	jal	0 <evm_entry>
    4e98:	00600513          	li	a0,6
    4e9c:	964fb0ef          	jal	0 <evm_entry>
    4ea0:	ffd98293          	addi	t0,s3,-3
    4ea4:	00529293          	slli	t0,t0,0x5
    4ea8:	005902b3          	add	t0,s2,t0
    4eac:	00599313          	slli	t1,s3,0x5
    4eb0:	00690333          	add	t1,s2,t1
    4eb4:	0002b383          	ld	t2,0(t0)
    4eb8:	0082be03          	ld	t3,8(t0)
    4ebc:	0102be83          	ld	t4,16(t0)
    4ec0:	0182bf03          	ld	t5,24(t0)
    4ec4:	00733023          	sd	t2,0(t1)
    4ec8:	01c33423          	sd	t3,8(t1)
    4ecc:	01d33823          	sd	t4,16(t1)
    4ed0:	01e33c23          	sd	t5,24(t1)
    4ed4:	00198993          	addi	s3,s3,1
    4ed8:	00300513          	li	a0,3
    4edc:	924fb0ef          	jal	0 <evm_entry>
    4ee0:	ffe98993          	addi	s3,s3,-2
    4ee4:	00599293          	slli	t0,s3,0x5
    4ee8:	005902b3          	add	t0,s2,t0
    4eec:	0002b303          	ld	t1,0(t0)
    4ef0:	0082b383          	ld	t2,8(t0)
    4ef4:	0102be03          	ld	t3,16(t0)
    4ef8:	0182be83          	ld	t4,24(t0)
    4efc:	0202bf03          	ld	t5,32(t0)
    4f00:	00830333          	add	t1,t1,s0
    4f04:	00733023          	sd	t2,0(t1)
    4f08:	01c33423          	sd	t3,8(t1)
    4f0c:	01d33823          	sd	t4,16(t1)
    4f10:	01e33c23          	sd	t5,24(t1)
    4f14:	00400513          	li	a0,4
    4f18:	8e8fb0ef          	jal	0 <evm_entry>
    4f1c:	00300513          	li	a0,3
    4f20:	8e0fb0ef          	jal	0 <evm_entry>
    4f24:	fff98293          	addi	t0,s3,-1
    4f28:	ffe98313          	addi	t1,s3,-2
    4f2c:	00529293          	slli	t0,t0,0x5
    4f30:	00531313          	slli	t1,t1,0x5
    4f34:	005902b3          	add	t0,s2,t0
    4f38:	00690333          	add	t1,s2,t1
    4f3c:	0002b383          	ld	t2,0(t0)
    4f40:	00033e03          	ld	t3,0(t1)
    4f44:	01c2b023          	sd	t3,0(t0)
    4f48:	00733023          	sd	t2,0(t1)
    4f4c:	0082b383          	ld	t2,8(t0)
    4f50:	00833e03          	ld	t3,8(t1)
    4f54:	01c2b423          	sd	t3,8(t0)
    4f58:	00733423          	sd	t2,8(t1)
    4f5c:	0102b383          	ld	t2,16(t0)
    4f60:	01033e03          	ld	t3,16(t1)
    4f64:	01c2b823          	sd	t3,16(t0)
    4f68:	00733823          	sd	t2,16(t1)
    4f6c:	0182b383          	ld	t2,24(t0)
    4f70:	01833e03          	ld	t3,24(t1)
    4f74:	01c2bc23          	sd	t3,24(t0)
    4f78:	00733c23          	sd	t2,24(t1)
    4f7c:	00200513          	li	a0,2
    4f80:	880fb0ef          	jal	0 <evm_entry>
    4f84:	fff98993          	addi	s3,s3,-1
    4f88:	00800513          	li	a0,8
    4f8c:	874fb0ef          	jal	0 <evm_entry>
    4f90:	fff98993          	addi	s3,s3,-1
    4f94:	00599293          	slli	t0,s3,0x5
    4f98:	005902b3          	add	t0,s2,t0
    4f9c:	0002b303          	ld	t1,0(t0)
    4fa0:	00231313          	slli	t1,t1,0x2
    4fa4:	00000397          	auipc	t2,0x0
    4fa8:	00038393          	mv	t2,t2
    4fac:	006383b3          	add	t2,t2,t1
    4fb0:	0003ae03          	lw	t3,0(t2) # 4fa4 <jumpdest_37+0x114>
    4fb4:	000e0067          	jr	t3
    4fb8:	00300513          	li	a0,3
    4fbc:	844fb0ef          	jal	0 <evm_entry>

0000000000004fc0 <jumpdest_38>:
    4fc0:	00300513          	li	a0,3
    4fc4:	83cfb0ef          	jal	0 <evm_entry>
    4fc8:	00300513          	li	a0,3
    4fcc:	834fb0ef          	jal	0 <evm_entry>
    4fd0:	00600513          	li	a0,6
    4fd4:	82cfb0ef          	jal	0 <evm_entry>
    4fd8:	00599313          	slli	t1,s3,0x5
    4fdc:	00690333          	add	t1,s2,t1
    4fe0:	00000293          	li	t0,0
    4fe4:	00533023          	sd	t0,0(t1)
    4fe8:	00000293          	li	t0,0
    4fec:	00533423          	sd	t0,8(t1)
    4ff0:	00000293          	li	t0,0
    4ff4:	00533823          	sd	t0,16(t1)
    4ff8:	00000293          	li	t0,0
    4ffc:	00533c23          	sd	t0,24(t1)
    5000:	00198993          	addi	s3,s3,1
    5004:	00600513          	li	a0,6
    5008:	ff9fa0ef          	jal	0 <evm_entry>
    500c:	00600513          	li	a0,6
    5010:	ff1fa0ef          	jal	0 <evm_entry>
    5014:	00599313          	slli	t1,s3,0x5
    5018:	00690333          	add	t1,s2,t1
    501c:	02000293          	li	t0,32
    5020:	00533023          	sd	t0,0(t1)
    5024:	00000293          	li	t0,0
    5028:	00533423          	sd	t0,8(t1)
    502c:	00000293          	li	t0,0
    5030:	00533823          	sd	t0,16(t1)
    5034:	00000293          	li	t0,0
    5038:	00533c23          	sd	t0,24(t1)
    503c:	00198993          	addi	s3,s3,1
    5040:	00600513          	li	a0,6
    5044:	fbdfa0ef          	jal	0 <evm_entry>
    5048:	ffd98293          	addi	t0,s3,-3
    504c:	00529293          	slli	t0,t0,0x5
    5050:	005902b3          	add	t0,s2,t0
    5054:	00599313          	slli	t1,s3,0x5
    5058:	00690333          	add	t1,s2,t1
    505c:	0002b383          	ld	t2,0(t0)
    5060:	0082be03          	ld	t3,8(t0)
    5064:	0102be83          	ld	t4,16(t0)
    5068:	0182bf03          	ld	t5,24(t0)
    506c:	00733023          	sd	t2,0(t1)
    5070:	01c33423          	sd	t3,8(t1)
    5074:	01d33823          	sd	t4,16(t1)
    5078:	01e33c23          	sd	t5,24(t1)
    507c:	00198993          	addi	s3,s3,1
    5080:	00300513          	li	a0,3
    5084:	f7dfa0ef          	jal	0 <evm_entry>
    5088:	ffe98993          	addi	s3,s3,-2
    508c:	00599293          	slli	t0,s3,0x5
    5090:	005902b3          	add	t0,s2,t0
    5094:	0002b303          	ld	t1,0(t0)
    5098:	0082b383          	ld	t2,8(t0)
    509c:	0102be03          	ld	t3,16(t0)
    50a0:	0182be83          	ld	t4,24(t0)
    50a4:	0202bf03          	ld	t5,32(t0)
    50a8:	0282bf83          	ld	t6,40(t0)
    50ac:	0302b503          	ld	a0,48(t0)
    50b0:	0382b583          	ld	a1,56(t0)
    50b4:	01e30a33          	add	s4,t1,t5
    50b8:	006a3ab3          	sltu	s5,s4,t1
    50bc:	01f38b33          	add	s6,t2,t6
    50c0:	015b0b33          	add	s6,s6,s5
    50c4:	007b3ab3          	sltu	s5,s6,t2
    50c8:	00ae0d33          	add	s10,t3,a0
    50cc:	015d0d33          	add	s10,s10,s5
    50d0:	01cd3ab3          	sltu	s5,s10,t3
    50d4:	00be8db3          	add	s11,t4,a1
    50d8:	015d8db3          	add	s11,s11,s5
    50dc:	0142b023          	sd	s4,0(t0)
    50e0:	0162b423          	sd	s6,8(t0)
    50e4:	01a2b823          	sd	s10,16(t0)
    50e8:	01b2bc23          	sd	s11,24(t0)
    50ec:	00198993          	addi	s3,s3,1
    50f0:	00400513          	li	a0,4
    50f4:	f0dfa0ef          	jal	0 <evm_entry>
    50f8:	00300513          	li	a0,3
    50fc:	f05fa0ef          	jal	0 <evm_entry>
    5100:	fff98293          	addi	t0,s3,-1
    5104:	ffe98313          	addi	t1,s3,-2
    5108:	00529293          	slli	t0,t0,0x5
    510c:	00531313          	slli	t1,t1,0x5
    5110:	005902b3          	add	t0,s2,t0
    5114:	00690333          	add	t1,s2,t1
    5118:	0002b383          	ld	t2,0(t0)
    511c:	00033e03          	ld	t3,0(t1)
    5120:	01c2b023          	sd	t3,0(t0)
    5124:	00733023          	sd	t2,0(t1)
    5128:	0082b383          	ld	t2,8(t0)
    512c:	00833e03          	ld	t3,8(t1)
    5130:	01c2b423          	sd	t3,8(t0)
    5134:	00733423          	sd	t2,8(t1)
    5138:	0102b383          	ld	t2,16(t0)
    513c:	01033e03          	ld	t3,16(t1)
    5140:	01c2b823          	sd	t3,16(t0)
    5144:	00733823          	sd	t2,16(t1)
    5148:	0182b383          	ld	t2,24(t0)
    514c:	01833e03          	ld	t3,24(t1)
    5150:	01c2bc23          	sd	t3,24(t0)
    5154:	00733c23          	sd	t2,24(t1)
    5158:	00200513          	li	a0,2
    515c:	ea5fa0ef          	jal	0 <evm_entry>
    5160:	fff98993          	addi	s3,s3,-1
    5164:	00900513          	li	a0,9
    5168:	e99fa0ef          	jal	0 <evm_entry>
    516c:	00600513          	li	a0,6
    5170:	e91fa0ef          	jal	0 <evm_entry>
    5174:	00599313          	slli	t1,s3,0x5
    5178:	00690333          	add	t1,s2,t1
    517c:	1d300293          	li	t0,467
    5180:	00533023          	sd	t0,0(t1)
    5184:	00000293          	li	t0,0
    5188:	00533423          	sd	t0,8(t1)
    518c:	00000293          	li	t0,0
    5190:	00533823          	sd	t0,16(t1)
    5194:	00000293          	li	t0,0
    5198:	00533c23          	sd	t0,24(t1)
    519c:	00198993          	addi	s3,s3,1
    51a0:	00300513          	li	a0,3
    51a4:	e5dfa0ef          	jal	0 <evm_entry>
    51a8:	00600513          	li	a0,6
    51ac:	e55fa0ef          	jal	0 <evm_entry>
    51b0:	00599313          	slli	t1,s3,0x5
    51b4:	00690333          	add	t1,s2,t1
    51b8:	00000293          	li	t0,0
    51bc:	00533023          	sd	t0,0(t1)
    51c0:	00000293          	li	t0,0
    51c4:	00533423          	sd	t0,8(t1)
    51c8:	00000293          	li	t0,0
    51cc:	00533823          	sd	t0,16(t1)
    51d0:	00000293          	li	t0,0
    51d4:	00533c23          	sd	t0,24(t1)
    51d8:	00198993          	addi	s3,s3,1
    51dc:	00700513          	li	a0,7
    51e0:	e21fa0ef          	jal	0 <evm_entry>
    51e4:	ffc98293          	addi	t0,s3,-4
    51e8:	00529293          	slli	t0,t0,0x5
    51ec:	005902b3          	add	t0,s2,t0
    51f0:	00599313          	slli	t1,s3,0x5
    51f4:	00690333          	add	t1,s2,t1
    51f8:	0002b383          	ld	t2,0(t0)
    51fc:	0082be03          	ld	t3,8(t0)
    5200:	0102be83          	ld	t4,16(t0)
    5204:	0182bf03          	ld	t5,24(t0)
    5208:	00733023          	sd	t2,0(t1)
    520c:	01c33423          	sd	t3,8(t1)
    5210:	01d33823          	sd	t4,16(t1)
    5214:	01e33c23          	sd	t5,24(t1)
    5218:	00198993          	addi	s3,s3,1
    521c:	00300513          	li	a0,3
    5220:	de1fa0ef          	jal	0 <evm_entry>
    5224:	ffe98993          	addi	s3,s3,-2
    5228:	00599293          	slli	t0,s3,0x5
    522c:	005902b3          	add	t0,s2,t0
    5230:	0002b303          	ld	t1,0(t0)
    5234:	0082b383          	ld	t2,8(t0)
    5238:	0102be03          	ld	t3,16(t0)
    523c:	0182be83          	ld	t4,24(t0)
    5240:	0202bf03          	ld	t5,32(t0)
    5244:	0282bf83          	ld	t6,40(t0)
    5248:	0302b503          	ld	a0,48(t0)
    524c:	0382b583          	ld	a1,56(t0)
    5250:	01e30a33          	add	s4,t1,t5
    5254:	006a3ab3          	sltu	s5,s4,t1
    5258:	01f38b33          	add	s6,t2,t6
    525c:	015b0b33          	add	s6,s6,s5
    5260:	007b3ab3          	sltu	s5,s6,t2
    5264:	00ae0d33          	add	s10,t3,a0
    5268:	015d0d33          	add	s10,s10,s5
    526c:	01cd3ab3          	sltu	s5,s10,t3
    5270:	00be8db3          	add	s11,t4,a1
    5274:	015d8db3          	add	s11,s11,s5
    5278:	0142b023          	sd	s4,0(t0)
    527c:	0162b423          	sd	s6,8(t0)
    5280:	01a2b823          	sd	s10,16(t0)
    5284:	01b2bc23          	sd	s11,24(t0)
    5288:	00198993          	addi	s3,s3,1
    528c:	00800513          	li	a0,8
    5290:	d71fa0ef          	jal	0 <evm_entry>
    5294:	ffb98293          	addi	t0,s3,-5
    5298:	00529293          	slli	t0,t0,0x5
    529c:	005902b3          	add	t0,s2,t0
    52a0:	00599313          	slli	t1,s3,0x5
    52a4:	00690333          	add	t1,s2,t1
    52a8:	0002b383          	ld	t2,0(t0)
    52ac:	0082be03          	ld	t3,8(t0)
    52b0:	0102be83          	ld	t4,16(t0)
    52b4:	0182bf03          	ld	t5,24(t0)
    52b8:	00733023          	sd	t2,0(t1)
    52bc:	01c33423          	sd	t3,8(t1)
    52c0:	01d33823          	sd	t4,16(t1)
    52c4:	01e33c23          	sd	t5,24(t1)
    52c8:	00198993          	addi	s3,s3,1
    52cc:	00900513          	li	a0,9
    52d0:	d31fa0ef          	jal	0 <evm_entry>
    52d4:	00600513          	li	a0,6
    52d8:	d29fa0ef          	jal	0 <evm_entry>
    52dc:	00599313          	slli	t1,s3,0x5
    52e0:	00690333          	add	t1,s2,t1
    52e4:	1b100293          	li	t0,433
    52e8:	00533023          	sd	t0,0(t1)
    52ec:	00000293          	li	t0,0
    52f0:	00533423          	sd	t0,8(t1)
    52f4:	00000293          	li	t0,0
    52f8:	00533823          	sd	t0,16(t1)
    52fc:	00000293          	li	t0,0
    5300:	00533c23          	sd	t0,24(t1)
    5304:	00198993          	addi	s3,s3,1
    5308:	00800513          	li	a0,8
    530c:	cf5fa0ef          	jal	0 <evm_entry>
    5310:	fff98993          	addi	s3,s3,-1
    5314:	00599293          	slli	t0,s3,0x5
    5318:	005902b3          	add	t0,s2,t0
    531c:	0002b303          	ld	t1,0(t0)
    5320:	00231313          	slli	t1,t1,0x2
    5324:	00000397          	auipc	t2,0x0
    5328:	00038393          	mv	t2,t2
    532c:	006383b3          	add	t2,t2,t1
    5330:	0003ae03          	lw	t3,0(t2) # 5324 <jumpdest_38+0x364>
    5334:	000e0067          	jr	t3
    5338:	00300513          	li	a0,3
    533c:	cc5fa0ef          	jal	0 <evm_entry>

0000000000005340 <jumpdest_39>:
    5340:	00300513          	li	a0,3
    5344:	cbdfa0ef          	jal	0 <evm_entry>
    5348:	00600513          	li	a0,6
    534c:	cb5fa0ef          	jal	0 <evm_entry>
    5350:	00300513          	li	a0,3
    5354:	cadfa0ef          	jal	0 <evm_entry>
    5358:	fff98293          	addi	t0,s3,-1
    535c:	ffc98313          	addi	t1,s3,-4
    5360:	00529293          	slli	t0,t0,0x5
    5364:	00531313          	slli	t1,t1,0x5
    5368:	005902b3          	add	t0,s2,t0
    536c:	00690333          	add	t1,s2,t1
    5370:	0002b383          	ld	t2,0(t0)
    5374:	00033e03          	ld	t3,0(t1)
    5378:	01c2b023          	sd	t3,0(t0)
    537c:	00733023          	sd	t2,0(t1)
    5380:	0082b383          	ld	t2,8(t0)
    5384:	00833e03          	ld	t3,8(t1)
    5388:	01c2b423          	sd	t3,8(t0)
    538c:	00733423          	sd	t2,8(t1)
    5390:	0102b383          	ld	t2,16(t0)
    5394:	01033e03          	ld	t3,16(t1)
    5398:	01c2b823          	sd	t3,16(t0)
    539c:	00733823          	sd	t2,16(t1)
    53a0:	0182b383          	ld	t2,24(t0)
    53a4:	01833e03          	ld	t3,24(t1)
    53a8:	01c2bc23          	sd	t3,24(t0)
    53ac:	00733c23          	sd	t2,24(t1)
    53b0:	00500513          	li	a0,5
    53b4:	c4dfa0ef          	jal	0 <evm_entry>
    53b8:	00300513          	li	a0,3
    53bc:	c45fa0ef          	jal	0 <evm_entry>
    53c0:	fff98293          	addi	t0,s3,-1
    53c4:	ffd98313          	addi	t1,s3,-3
    53c8:	00529293          	slli	t0,t0,0x5
    53cc:	00531313          	slli	t1,t1,0x5
    53d0:	005902b3          	add	t0,s2,t0
    53d4:	00690333          	add	t1,s2,t1
    53d8:	0002b383          	ld	t2,0(t0)
    53dc:	00033e03          	ld	t3,0(t1)
    53e0:	01c2b023          	sd	t3,0(t0)
    53e4:	00733023          	sd	t2,0(t1)
    53e8:	0082b383          	ld	t2,8(t0)
    53ec:	00833e03          	ld	t3,8(t1)
    53f0:	01c2b423          	sd	t3,8(t0)
    53f4:	00733423          	sd	t2,8(t1)
    53f8:	0102b383          	ld	t2,16(t0)
    53fc:	01033e03          	ld	t3,16(t1)
    5400:	01c2b823          	sd	t3,16(t0)
    5404:	00733823          	sd	t2,16(t1)
    5408:	0182b383          	ld	t2,24(t0)
    540c:	01833e03          	ld	t3,24(t1)
    5410:	01c2bc23          	sd	t3,24(t0)
    5414:	00733c23          	sd	t2,24(t1)
    5418:	00400513          	li	a0,4
    541c:	be5fa0ef          	jal	0 <evm_entry>
    5420:	00300513          	li	a0,3
    5424:	bddfa0ef          	jal	0 <evm_entry>
    5428:	fff98293          	addi	t0,s3,-1
    542c:	ffe98313          	addi	t1,s3,-2
    5430:	00529293          	slli	t0,t0,0x5
    5434:	00531313          	slli	t1,t1,0x5
    5438:	005902b3          	add	t0,s2,t0
    543c:	00690333          	add	t1,s2,t1
    5440:	0002b383          	ld	t2,0(t0)
    5444:	00033e03          	ld	t3,0(t1)
    5448:	01c2b023          	sd	t3,0(t0)
    544c:	00733023          	sd	t2,0(t1)
    5450:	0082b383          	ld	t2,8(t0)
    5454:	00833e03          	ld	t3,8(t1)
    5458:	01c2b423          	sd	t3,8(t0)
    545c:	00733423          	sd	t2,8(t1)
    5460:	0102b383          	ld	t2,16(t0)
    5464:	01033e03          	ld	t3,16(t1)
    5468:	01c2b823          	sd	t3,16(t0)
    546c:	00733823          	sd	t2,16(t1)
    5470:	0182b383          	ld	t2,24(t0)
    5474:	01833e03          	ld	t3,24(t1)
    5478:	01c2bc23          	sd	t3,24(t0)
    547c:	00733c23          	sd	t2,24(t1)
    5480:	00200513          	li	a0,2
    5484:	b7dfa0ef          	jal	0 <evm_entry>
    5488:	fff98993          	addi	s3,s3,-1
    548c:	00800513          	li	a0,8
    5490:	b71fa0ef          	jal	0 <evm_entry>
    5494:	fff98993          	addi	s3,s3,-1
    5498:	00599293          	slli	t0,s3,0x5
    549c:	005902b3          	add	t0,s2,t0
    54a0:	0002b303          	ld	t1,0(t0)
    54a4:	00231313          	slli	t1,t1,0x2
    54a8:	00000397          	auipc	t2,0x0
    54ac:	00038393          	mv	t2,t2
    54b0:	006383b3          	add	t2,t2,t1
    54b4:	0003ae03          	lw	t3,0(t2) # 54a8 <jumpdest_39+0x168>
    54b8:	000e0067          	jr	t3
    54bc:	00300513          	li	a0,3
    54c0:	b41fa0ef          	jal	0 <evm_entry>

00000000000054c4 <jumpdest_40>:
    54c4:	00300513          	li	a0,3
    54c8:	b39fa0ef          	jal	0 <evm_entry>
    54cc:	00300513          	li	a0,3
    54d0:	b31fa0ef          	jal	0 <evm_entry>
    54d4:	00098293          	mv	t0,s3
    54d8:	00529293          	slli	t0,t0,0x5
    54dc:	005902b3          	add	t0,s2,t0
    54e0:	00599313          	slli	t1,s3,0x5
    54e4:	00690333          	add	t1,s2,t1
    54e8:	0002b383          	ld	t2,0(t0)
    54ec:	0082be03          	ld	t3,8(t0)
    54f0:	0102be83          	ld	t4,16(t0)
    54f4:	0182bf03          	ld	t5,24(t0)
    54f8:	00733023          	sd	t2,0(t1)
    54fc:	01c33423          	sd	t3,8(t1)
    5500:	01d33823          	sd	t4,16(t1)
    5504:	01e33c23          	sd	t5,24(t1)
    5508:	00198993          	addi	s3,s3,1
    550c:	00300513          	li	a0,3
    5510:	af1fa0ef          	jal	0 <evm_entry>
    5514:	00300513          	li	a0,3
    5518:	ae9fa0ef          	jal	0 <evm_entry>
    551c:	00198993          	addi	s3,s3,1
    5520:	05700513          	li	a0,87
    5524:	addfa0ef          	jal	0 <evm_entry>
    5528:	00600513          	li	a0,6
    552c:	ad5fa0ef          	jal	0 <evm_entry>
    5530:	00599313          	slli	t1,s3,0x5
    5534:	00690333          	add	t1,s2,t1
    5538:	00000293          	li	t0,0
    553c:	00533023          	sd	t0,0(t1)
    5540:	00000293          	li	t0,0
    5544:	00533423          	sd	t0,8(t1)
    5548:	00000293          	li	t0,0
    554c:	00533823          	sd	t0,16(t1)
    5550:	710002b7          	lui	t0,0x71000
    5554:	00533c23          	sd	t0,24(t1)
    5558:	00198993          	addi	s3,s3,1
    555c:	00300513          	li	a0,3
    5560:	aa1fa0ef          	jal	0 <evm_entry>

0000000000005564 <jumpdest_41>:
    5564:	00300513          	li	a0,3
    5568:	a99fa0ef          	jal	0 <evm_entry>
    556c:	00300513          	li	a0,3
    5570:	a91fa0ef          	jal	0 <evm_entry>
    5574:	00600513          	li	a0,6
    5578:	a89fa0ef          	jal	0 <evm_entry>
    557c:	00599313          	slli	t1,s3,0x5
    5580:	00690333          	add	t1,s2,t1
    5584:	00000293          	li	t0,0
    5588:	00533023          	sd	t0,0(t1)
    558c:	00000293          	li	t0,0
    5590:	00533423          	sd	t0,8(t1)
    5594:	00000293          	li	t0,0
    5598:	00533823          	sd	t0,16(t1)
    559c:	00000293          	li	t0,0
    55a0:	00533c23          	sd	t0,24(t1)
    55a4:	00198993          	addi	s3,s3,1
    55a8:	00900513          	li	a0,9
    55ac:	a55fa0ef          	jal	0 <evm_entry>
    55b0:	00600513          	li	a0,6
    55b4:	a4dfa0ef          	jal	0 <evm_entry>
    55b8:	00599313          	slli	t1,s3,0x5
    55bc:	00690333          	add	t1,s2,t1
    55c0:	21000293          	li	t0,528
    55c4:	00533023          	sd	t0,0(t1)
    55c8:	00000293          	li	t0,0
    55cc:	00533423          	sd	t0,8(t1)
    55d0:	00000293          	li	t0,0
    55d4:	00533823          	sd	t0,16(t1)
    55d8:	00000293          	li	t0,0
    55dc:	00533c23          	sd	t0,24(t1)
    55e0:	00198993          	addi	s3,s3,1
    55e4:	00600513          	li	a0,6
    55e8:	a19fa0ef          	jal	0 <evm_entry>
    55ec:	ffd98293          	addi	t0,s3,-3
    55f0:	00529293          	slli	t0,t0,0x5
    55f4:	005902b3          	add	t0,s2,t0
    55f8:	00599313          	slli	t1,s3,0x5
    55fc:	00690333          	add	t1,s2,t1
    5600:	0002b383          	ld	t2,0(t0) # 71000000 <jumpdest_57+0x70ff8f14>
    5604:	0082be03          	ld	t3,8(t0)
    5608:	0102be83          	ld	t4,16(t0)
    560c:	0182bf03          	ld	t5,24(t0)
    5610:	00733023          	sd	t2,0(t1)
    5614:	01c33423          	sd	t3,8(t1)
    5618:	01d33823          	sd	t4,16(t1)
    561c:	01e33c23          	sd	t5,24(t1)
    5620:	00198993          	addi	s3,s3,1
    5624:	00900513          	li	a0,9
    5628:	9d9fa0ef          	jal	0 <evm_entry>
    562c:	00600513          	li	a0,6
    5630:	9d1fa0ef          	jal	0 <evm_entry>
    5634:	00599313          	slli	t1,s3,0x5
    5638:	00690333          	add	t1,s2,t1
    563c:	15300293          	li	t0,339
    5640:	00533023          	sd	t0,0(t1)
    5644:	00000293          	li	t0,0
    5648:	00533423          	sd	t0,8(t1)
    564c:	00000293          	li	t0,0
    5650:	00533823          	sd	t0,16(t1)
    5654:	00000293          	li	t0,0
    5658:	00533c23          	sd	t0,24(t1)
    565c:	00198993          	addi	s3,s3,1
    5660:	00800513          	li	a0,8
    5664:	99dfa0ef          	jal	0 <evm_entry>
    5668:	fff98993          	addi	s3,s3,-1
    566c:	00599293          	slli	t0,s3,0x5
    5670:	005902b3          	add	t0,s2,t0
    5674:	0002b303          	ld	t1,0(t0)
    5678:	00231313          	slli	t1,t1,0x2
    567c:	00000397          	auipc	t2,0x0
    5680:	00038393          	mv	t2,t2
    5684:	006383b3          	add	t2,t2,t1
    5688:	0003ae03          	lw	t3,0(t2) # 567c <jumpdest_41+0x118>
    568c:	000e0067          	jr	t3
    5690:	00300513          	li	a0,3
    5694:	96dfa0ef          	jal	0 <evm_entry>

0000000000005698 <jumpdest_42>:
    5698:	00300513          	li	a0,3
    569c:	965fa0ef          	jal	0 <evm_entry>
    56a0:	00500513          	li	a0,5
    56a4:	95dfa0ef          	jal	0 <evm_entry>
    56a8:	00300513          	li	a0,3
    56ac:	955fa0ef          	jal	0 <evm_entry>
    56b0:	fff98293          	addi	t0,s3,-1
    56b4:	ffd98313          	addi	t1,s3,-3
    56b8:	00529293          	slli	t0,t0,0x5
    56bc:	00531313          	slli	t1,t1,0x5
    56c0:	005902b3          	add	t0,s2,t0
    56c4:	00690333          	add	t1,s2,t1
    56c8:	0002b383          	ld	t2,0(t0)
    56cc:	00033e03          	ld	t3,0(t1)
    56d0:	01c2b023          	sd	t3,0(t0)
    56d4:	00733023          	sd	t2,0(t1)
    56d8:	0082b383          	ld	t2,8(t0)
    56dc:	00833e03          	ld	t3,8(t1)
    56e0:	01c2b423          	sd	t3,8(t0)
    56e4:	00733423          	sd	t2,8(t1)
    56e8:	0102b383          	ld	t2,16(t0)
    56ec:	01033e03          	ld	t3,16(t1)
    56f0:	01c2b823          	sd	t3,16(t0)
    56f4:	00733823          	sd	t2,16(t1)
    56f8:	0182b383          	ld	t2,24(t0)
    56fc:	01833e03          	ld	t3,24(t1)
    5700:	01c2bc23          	sd	t3,24(t0)
    5704:	00733c23          	sd	t2,24(t1)
    5708:	00200513          	li	a0,2
    570c:	8f5fa0ef          	jal	0 <evm_entry>
    5710:	fff98993          	addi	s3,s3,-1
    5714:	00900513          	li	a0,9
    5718:	8e9fa0ef          	jal	0 <evm_entry>
    571c:	00600513          	li	a0,6
    5720:	8e1fa0ef          	jal	0 <evm_entry>
    5724:	00599313          	slli	t1,s3,0x5
    5728:	00690333          	add	t1,s2,t1
    572c:	21b00293          	li	t0,539
    5730:	00533023          	sd	t0,0(t1)
    5734:	00000293          	li	t0,0
    5738:	00533423          	sd	t0,8(t1)
    573c:	00000293          	li	t0,0
    5740:	00533823          	sd	t0,16(t1)
    5744:	00000293          	li	t0,0
    5748:	00533c23          	sd	t0,24(t1)
    574c:	00198993          	addi	s3,s3,1
    5750:	00700513          	li	a0,7
    5754:	8adfa0ef          	jal	0 <evm_entry>
    5758:	ffc98293          	addi	t0,s3,-4
    575c:	00529293          	slli	t0,t0,0x5
    5760:	005902b3          	add	t0,s2,t0
    5764:	00599313          	slli	t1,s3,0x5
    5768:	00690333          	add	t1,s2,t1
    576c:	0002b383          	ld	t2,0(t0)
    5770:	0082be03          	ld	t3,8(t0)
    5774:	0102be83          	ld	t4,16(t0)
    5778:	0182bf03          	ld	t5,24(t0)
    577c:	00733023          	sd	t2,0(t1)
    5780:	01c33423          	sd	t3,8(t1)
    5784:	01d33823          	sd	t4,16(t1)
    5788:	01e33c23          	sd	t5,24(t1)
    578c:	00198993          	addi	s3,s3,1
    5790:	00900513          	li	a0,9
    5794:	86dfa0ef          	jal	0 <evm_entry>
    5798:	00600513          	li	a0,6
    579c:	865fa0ef          	jal	0 <evm_entry>
    57a0:	00599313          	slli	t1,s3,0x5
    57a4:	00690333          	add	t1,s2,t1
    57a8:	15300293          	li	t0,339
    57ac:	00533023          	sd	t0,0(t1)
    57b0:	00000293          	li	t0,0
    57b4:	00533423          	sd	t0,8(t1)
    57b8:	00000293          	li	t0,0
    57bc:	00533823          	sd	t0,16(t1)
    57c0:	00000293          	li	t0,0
    57c4:	00533c23          	sd	t0,24(t1)
    57c8:	00198993          	addi	s3,s3,1
    57cc:	00800513          	li	a0,8
    57d0:	831fa0ef          	jal	0 <evm_entry>
    57d4:	fff98993          	addi	s3,s3,-1
    57d8:	00599293          	slli	t0,s3,0x5
    57dc:	005902b3          	add	t0,s2,t0
    57e0:	0002b303          	ld	t1,0(t0)
    57e4:	00231313          	slli	t1,t1,0x2
    57e8:	00000397          	auipc	t2,0x0
    57ec:	00038393          	mv	t2,t2
    57f0:	006383b3          	add	t2,t2,t1
    57f4:	0003ae03          	lw	t3,0(t2) # 57e8 <jumpdest_42+0x150>
    57f8:	000e0067          	jr	t3
    57fc:	00300513          	li	a0,3
    5800:	801fa0ef          	jal	0 <evm_entry>

0000000000005804 <jumpdest_43>:
    5804:	00300513          	li	a0,3
    5808:	ff8fa0ef          	jal	0 <evm_entry>
    580c:	00600513          	li	a0,6
    5810:	ff0fa0ef          	jal	0 <evm_entry>
    5814:	00300513          	li	a0,3
    5818:	fe8fa0ef          	jal	0 <evm_entry>
    581c:	fff98293          	addi	t0,s3,-1
    5820:	ffc98313          	addi	t1,s3,-4
    5824:	00529293          	slli	t0,t0,0x5
    5828:	00531313          	slli	t1,t1,0x5
    582c:	005902b3          	add	t0,s2,t0
    5830:	00690333          	add	t1,s2,t1
    5834:	0002b383          	ld	t2,0(t0)
    5838:	00033e03          	ld	t3,0(t1)
    583c:	01c2b023          	sd	t3,0(t0)
    5840:	00733023          	sd	t2,0(t1)
    5844:	0082b383          	ld	t2,8(t0)
    5848:	00833e03          	ld	t3,8(t1)
    584c:	01c2b423          	sd	t3,8(t0)
    5850:	00733423          	sd	t2,8(t1)
    5854:	0102b383          	ld	t2,16(t0)
    5858:	01033e03          	ld	t3,16(t1)
    585c:	01c2b823          	sd	t3,16(t0)
    5860:	00733823          	sd	t2,16(t1)
    5864:	0182b383          	ld	t2,24(t0)
    5868:	01833e03          	ld	t3,24(t1)
    586c:	01c2bc23          	sd	t3,24(t0)
    5870:	00733c23          	sd	t2,24(t1)
    5874:	00200513          	li	a0,2
    5878:	f88fa0ef          	jal	0 <evm_entry>
    587c:	fff98993          	addi	s3,s3,-1
    5880:	00600513          	li	a0,6
    5884:	f7cfa0ef          	jal	0 <evm_entry>
    5888:	ffd98293          	addi	t0,s3,-3
    588c:	00529293          	slli	t0,t0,0x5
    5890:	005902b3          	add	t0,s2,t0
    5894:	00599313          	slli	t1,s3,0x5
    5898:	00690333          	add	t1,s2,t1
    589c:	0002b383          	ld	t2,0(t0)
    58a0:	0082be03          	ld	t3,8(t0)
    58a4:	0102be83          	ld	t4,16(t0)
    58a8:	0182bf03          	ld	t5,24(t0)
    58ac:	00733023          	sd	t2,0(t1)
    58b0:	01c33423          	sd	t3,8(t1)
    58b4:	01d33823          	sd	t4,16(t1)
    58b8:	01e33c23          	sd	t5,24(t1)
    58bc:	00198993          	addi	s3,s3,1
    58c0:	00600513          	li	a0,6
    58c4:	f3cfa0ef          	jal	0 <evm_entry>
    58c8:	ffd98293          	addi	t0,s3,-3
    58cc:	00529293          	slli	t0,t0,0x5
    58d0:	005902b3          	add	t0,s2,t0
    58d4:	00599313          	slli	t1,s3,0x5
    58d8:	00690333          	add	t1,s2,t1
    58dc:	0002b383          	ld	t2,0(t0)
    58e0:	0082be03          	ld	t3,8(t0)
    58e4:	0102be83          	ld	t4,16(t0)
    58e8:	0182bf03          	ld	t5,24(t0)
    58ec:	00733023          	sd	t2,0(t1)
    58f0:	01c33423          	sd	t3,8(t1)
    58f4:	01d33823          	sd	t4,16(t1)
    58f8:	01e33c23          	sd	t5,24(t1)
    58fc:	00198993          	addi	s3,s3,1
    5900:	00500513          	li	a0,5
    5904:	efcfa0ef          	jal	0 <evm_entry>
    5908:	ffe98993          	addi	s3,s3,-2
    590c:	00599293          	slli	t0,s3,0x5
    5910:	005902b3          	add	t0,s2,t0
    5914:	0202b303          	ld	t1,32(t0)
    5918:	0282b383          	ld	t2,40(t0)
    591c:	0302be03          	ld	t3,48(t0)
    5920:	0382be83          	ld	t4,56(t0)
    5924:	0002bf03          	ld	t5,0(t0)
    5928:	0082bf83          	ld	t6,8(t0)
    592c:	0102b503          	ld	a0,16(t0)
    5930:	0182b583          	ld	a1,24(t0)
    5934:	03e30433          	mul	s0,t1,t5
    5938:	03f304b3          	mul	s1,t1,t6
    593c:	03e38633          	mul	a2,t2,t5
    5940:	00c484b3          	add	s1,s1,a2
    5944:	02a30933          	mul	s2,t1,a0
    5948:	03f38633          	mul	a2,t2,t6
    594c:	00c90933          	add	s2,s2,a2
    5950:	03ee0633          	mul	a2,t3,t5
    5954:	00c90933          	add	s2,s2,a2
    5958:	02b309b3          	mul	s3,t1,a1
    595c:	02a38633          	mul	a2,t2,a0
    5960:	00c989b3          	add	s3,s3,a2
    5964:	03fe0633          	mul	a2,t3,t6
    5968:	00c989b3          	add	s3,s3,a2
    596c:	03ee8633          	mul	a2,t4,t5
    5970:	00c989b3          	add	s3,s3,a2
    5974:	0082b023          	sd	s0,0(t0)
    5978:	0092b423          	sd	s1,8(t0)
    597c:	0122b823          	sd	s2,16(t0)
    5980:	0132bc23          	sd	s3,24(t0)
    5984:	00198993          	addi	s3,s3,1
    5988:	00900513          	li	a0,9
    598c:	e74fa0ef          	jal	0 <evm_entry>
    5990:	00600513          	li	a0,6
    5994:	e6cfa0ef          	jal	0 <evm_entry>
    5998:	00599313          	slli	t1,s3,0x5
    599c:	00690333          	add	t1,s2,t1
    59a0:	22900293          	li	t0,553
    59a4:	00533023          	sd	t0,0(t1)
    59a8:	00000293          	li	t0,0
    59ac:	00533423          	sd	t0,8(t1)
    59b0:	00000293          	li	t0,0
    59b4:	00533823          	sd	t0,16(t1)
    59b8:	00000293          	li	t0,0
    59bc:	00533c23          	sd	t0,24(t1)
    59c0:	00198993          	addi	s3,s3,1
    59c4:	00500513          	li	a0,5
    59c8:	e38fa0ef          	jal	0 <evm_entry>
    59cc:	ffe98293          	addi	t0,s3,-2
    59d0:	00529293          	slli	t0,t0,0x5
    59d4:	005902b3          	add	t0,s2,t0
    59d8:	00599313          	slli	t1,s3,0x5
    59dc:	00690333          	add	t1,s2,t1
    59e0:	0002b383          	ld	t2,0(t0)
    59e4:	0082be03          	ld	t3,8(t0)
    59e8:	0102be83          	ld	t4,16(t0)
    59ec:	0182bf03          	ld	t5,24(t0)
    59f0:	00733023          	sd	t2,0(t1)
    59f4:	01c33423          	sd	t3,8(t1)
    59f8:	01d33823          	sd	t4,16(t1)
    59fc:	01e33c23          	sd	t5,24(t1)
    5a00:	00198993          	addi	s3,s3,1
    5a04:	00900513          	li	a0,9
    5a08:	df8fa0ef          	jal	0 <evm_entry>
    5a0c:	00600513          	li	a0,6
    5a10:	df0fa0ef          	jal	0 <evm_entry>
    5a14:	00599313          	slli	t1,s3,0x5
    5a18:	00690333          	add	t1,s2,t1
    5a1c:	15300293          	li	t0,339
    5a20:	00533023          	sd	t0,0(t1)
    5a24:	00000293          	li	t0,0
    5a28:	00533423          	sd	t0,8(t1)
    5a2c:	00000293          	li	t0,0
    5a30:	00533823          	sd	t0,16(t1)
    5a34:	00000293          	li	t0,0
    5a38:	00533c23          	sd	t0,24(t1)
    5a3c:	00198993          	addi	s3,s3,1
    5a40:	00800513          	li	a0,8
    5a44:	dbcfa0ef          	jal	0 <evm_entry>
    5a48:	fff98993          	addi	s3,s3,-1
    5a4c:	00599293          	slli	t0,s3,0x5
    5a50:	005902b3          	add	t0,s2,t0
    5a54:	0002b303          	ld	t1,0(t0)
    5a58:	00231313          	slli	t1,t1,0x2
    5a5c:	00000397          	auipc	t2,0x0
    5a60:	00038393          	mv	t2,t2
    5a64:	006383b3          	add	t2,t2,t1
    5a68:	0003ae03          	lw	t3,0(t2) # 5a5c <jumpdest_43+0x258>
    5a6c:	000e0067          	jr	t3
    5a70:	00300513          	li	a0,3
    5a74:	d8cfa0ef          	jal	0 <evm_entry>

0000000000005a78 <jumpdest_44>:
    5a78:	00300513          	li	a0,3
    5a7c:	d84fa0ef          	jal	0 <evm_entry>
    5a80:	00500513          	li	a0,5
    5a84:	d7cfa0ef          	jal	0 <evm_entry>
    5a88:	00300513          	li	a0,3
    5a8c:	d74fa0ef          	jal	0 <evm_entry>
    5a90:	fff98293          	addi	t0,s3,-1
    5a94:	ffd98313          	addi	t1,s3,-3
    5a98:	00529293          	slli	t0,t0,0x5
    5a9c:	00531313          	slli	t1,t1,0x5
    5aa0:	005902b3          	add	t0,s2,t0
    5aa4:	00690333          	add	t1,s2,t1
    5aa8:	0002b383          	ld	t2,0(t0)
    5aac:	00033e03          	ld	t3,0(t1)
    5ab0:	01c2b023          	sd	t3,0(t0)
    5ab4:	00733023          	sd	t2,0(t1)
    5ab8:	0082b383          	ld	t2,8(t0)
    5abc:	00833e03          	ld	t3,8(t1)
    5ac0:	01c2b423          	sd	t3,8(t0)
    5ac4:	00733423          	sd	t2,8(t1)
    5ac8:	0102b383          	ld	t2,16(t0)
    5acc:	01033e03          	ld	t3,16(t1)
    5ad0:	01c2b823          	sd	t3,16(t0)
    5ad4:	00733823          	sd	t2,16(t1)
    5ad8:	0182b383          	ld	t2,24(t0)
    5adc:	01833e03          	ld	t3,24(t1)
    5ae0:	01c2bc23          	sd	t3,24(t0)
    5ae4:	00733c23          	sd	t2,24(t1)
    5ae8:	00200513          	li	a0,2
    5aec:	d14fa0ef          	jal	0 <evm_entry>
    5af0:	fff98993          	addi	s3,s3,-1
    5af4:	00600513          	li	a0,6
    5af8:	d08fa0ef          	jal	0 <evm_entry>
    5afc:	ffd98293          	addi	t0,s3,-3
    5b00:	00529293          	slli	t0,t0,0x5
    5b04:	005902b3          	add	t0,s2,t0
    5b08:	00599313          	slli	t1,s3,0x5
    5b0c:	00690333          	add	t1,s2,t1
    5b10:	0002b383          	ld	t2,0(t0)
    5b14:	0082be03          	ld	t3,8(t0)
    5b18:	0102be83          	ld	t4,16(t0)
    5b1c:	0182bf03          	ld	t5,24(t0)
    5b20:	00733023          	sd	t2,0(t1)
    5b24:	01c33423          	sd	t3,8(t1)
    5b28:	01d33823          	sd	t4,16(t1)
    5b2c:	01e33c23          	sd	t5,24(t1)
    5b30:	00198993          	addi	s3,s3,1
    5b34:	00600513          	li	a0,6
    5b38:	cc8fa0ef          	jal	0 <evm_entry>
    5b3c:	ffd98293          	addi	t0,s3,-3
    5b40:	00529293          	slli	t0,t0,0x5
    5b44:	005902b3          	add	t0,s2,t0
    5b48:	00599313          	slli	t1,s3,0x5
    5b4c:	00690333          	add	t1,s2,t1
    5b50:	0002b383          	ld	t2,0(t0)
    5b54:	0082be03          	ld	t3,8(t0)
    5b58:	0102be83          	ld	t4,16(t0)
    5b5c:	0182bf03          	ld	t5,24(t0)
    5b60:	00733023          	sd	t2,0(t1)
    5b64:	01c33423          	sd	t3,8(t1)
    5b68:	01d33823          	sd	t4,16(t1)
    5b6c:	01e33c23          	sd	t5,24(t1)
    5b70:	00198993          	addi	s3,s3,1
    5b74:	00500513          	li	a0,5
    5b78:	c88fa0ef          	jal	0 <evm_entry>
    5b7c:	fff98993          	addi	s3,s3,-1
    5b80:	00800513          	li	a0,8
    5b84:	c7cfa0ef          	jal	0 <evm_entry>
    5b88:	ffb98293          	addi	t0,s3,-5
    5b8c:	00529293          	slli	t0,t0,0x5
    5b90:	005902b3          	add	t0,s2,t0
    5b94:	00599313          	slli	t1,s3,0x5
    5b98:	00690333          	add	t1,s2,t1
    5b9c:	0002b383          	ld	t2,0(t0)
    5ba0:	0082be03          	ld	t3,8(t0)
    5ba4:	0102be83          	ld	t4,16(t0)
    5ba8:	0182bf03          	ld	t5,24(t0)
    5bac:	00733023          	sd	t2,0(t1)
    5bb0:	01c33423          	sd	t3,8(t1)
    5bb4:	01d33823          	sd	t4,16(t1)
    5bb8:	01e33c23          	sd	t5,24(t1)
    5bbc:	00198993          	addi	s3,s3,1
    5bc0:	00300513          	li	a0,3
    5bc4:	c3cfa0ef          	jal	0 <evm_entry>
    5bc8:	ffe98993          	addi	s3,s3,-2
    5bcc:	00599293          	slli	t0,s3,0x5
    5bd0:	005902b3          	add	t0,s2,t0
    5bd4:	0002b303          	ld	t1,0(t0)
    5bd8:	0082b383          	ld	t2,8(t0)
    5bdc:	0102be03          	ld	t3,16(t0)
    5be0:	0182be83          	ld	t4,24(t0)
    5be4:	0202bf03          	ld	t5,32(t0)
    5be8:	0282bf83          	ld	t6,40(t0)
    5bec:	0302b503          	ld	a0,48(t0)
    5bf0:	0382b583          	ld	a1,56(t0)
    5bf4:	01e34433          	xor	s0,t1,t5
    5bf8:	01f3c4b3          	xor	s1,t2,t6
    5bfc:	00ae4933          	xor	s2,t3,a0
    5c00:	00bec9b3          	xor	s3,t4,a1
    5c04:	00946433          	or	s0,s0,s1
    5c08:	01246433          	or	s0,s0,s2
    5c0c:	01346433          	or	s0,s0,s3
    5c10:	00143413          	seqz	s0,s0
    5c14:	0082b023          	sd	s0,0(t0)
    5c18:	0002b423          	sd	zero,8(t0)
    5c1c:	0002b823          	sd	zero,16(t0)
    5c20:	0002bc23          	sd	zero,24(t0)
    5c24:	00198993          	addi	s3,s3,1
    5c28:	00700513          	li	a0,7
    5c2c:	bd4fa0ef          	jal	0 <evm_entry>
    5c30:	ffc98293          	addi	t0,s3,-4
    5c34:	00529293          	slli	t0,t0,0x5
    5c38:	005902b3          	add	t0,s2,t0
    5c3c:	00599313          	slli	t1,s3,0x5
    5c40:	00690333          	add	t1,s2,t1
    5c44:	0002b383          	ld	t2,0(t0)
    5c48:	0082be03          	ld	t3,8(t0)
    5c4c:	0102be83          	ld	t4,16(t0)
    5c50:	0182bf03          	ld	t5,24(t0)
    5c54:	00733023          	sd	t2,0(t1)
    5c58:	01c33423          	sd	t3,8(t1)
    5c5c:	01d33823          	sd	t4,16(t1)
    5c60:	01e33c23          	sd	t5,24(t1)
    5c64:	00198993          	addi	s3,s3,1
    5c68:	00300513          	li	a0,3
    5c6c:	b94fa0ef          	jal	0 <evm_entry>
